---
triple:          'arm64-apple-darwin'
binary-path:     Pack_public_tests.exe
relocations:
  - { offsetInCU: 0x52, offset: 0x52, size: 0x8, addend: 0x0, symName: __ZL10RANK_NAMES, symObjAddr: 0x2490, symBinAddr: 0x1000103E8, symSize: 0x0 }
  - { offsetInCU: 0x81, offset: 0x81, size: 0x8, addend: 0x0, symName: __ZL10SUIT_NAMES, symObjAddr: 0x24F8, symBinAddr: 0x100010450, symSize: 0x0 }
  - { offsetInCU: 0x307F, offset: 0x307F, size: 0x8, addend: 0x0, symName: __ZNSt3__124__put_character_sequenceB8ue170006IcNS_11char_traitsIcEEEERNS_13basic_ostreamIT_T0_EES7_PKS4_m, symObjAddr: 0x1330, symBinAddr: 0x100004E30, symSize: 0x1EC }
  - { offsetInCU: 0x4EEB, offset: 0x4EEB, size: 0x8, addend: 0x0, symName: __ZNSt3__1eqB8ue170006IcNS_11char_traitsIcEENS_9allocatorIcEEEEbRKNS_12basic_stringIT_T0_T1_EEPKS6_, symObjAddr: 0x90, symBinAddr: 0x100003B90, symSize: 0xAC }
  - { offsetInCU: 0x4F52, offset: 0x4F52, size: 0x8, addend: 0x0, symName: __ZNSt3__1lsB8ue170006INS_11char_traitsIcEEEERNS_13basic_ostreamIcT_EES6_PKc, symObjAddr: 0x17C, symBinAddr: 0x100003C7C, symSize: 0x48 }
  - { offsetInCU: 0x4F98, offset: 0x4F98, size: 0x8, addend: 0x0, symName: __ZNSt3__1rsB8ue170006IcNS_11char_traitsIcEENS_9allocatorIcEEEERNS_13basic_istreamIT_T0_EES9_RNS_12basic_stringIS6_S7_T1_EE, symObjAddr: 0x2AC, symBinAddr: 0x100003DAC, symSize: 0x30C }
  - { offsetInCU: 0x5065, offset: 0x5065, size: 0x8, addend: 0x0, symName: __ZNSt3__118__constexpr_strlenB8ue170006EPKc, symObjAddr: 0x1240, symBinAddr: 0x100004D40, symSize: 0x24 }
  - { offsetInCU: 0x5091, offset: 0x5091, size: 0x8, addend: 0x0, symName: __ZNSt3__116__pad_and_outputB8ue170006IcNS_11char_traitsIcEEEENS_19ostreambuf_iteratorIT_T0_EES6_PKS4_S8_S8_RNS_8ios_baseES4_, symObjAddr: 0x1538, symBinAddr: 0x100005038, symSize: 0x240 }
  - { offsetInCU: 0x5160, offset: 0x5160, size: 0x8, addend: 0x0, symName: __ZNSt3__112__to_addressB8ue170006IcEEPT_S2_, symObjAddr: 0x1AA0, symBinAddr: 0x1000055A0, symSize: 0x14 }
  - { offsetInCU: 0x51C8, offset: 0x51C8, size: 0x8, addend: 0x0, symName: __ZNSt3__19use_facetB8ue170006INS_5ctypeIcEEEERKT_RKNS_6localeE, symObjAddr: 0x1CE8, symBinAddr: 0x1000057E8, symSize: 0x2C }
  - { offsetInCU: 0x85FF, offset: 0x85FF, size: 0x8, addend: 0x0, symName: __Z14string_to_rankRKNSt3__112basic_stringIcNS_11char_traitsIcEENS_9allocatorIcEEEE, symObjAddr: 0x0, symBinAddr: 0x100003B00, symSize: 0x90 }
  - { offsetInCU: 0x8647, offset: 0x8647, size: 0x8, addend: 0x0, symName: __ZlsRNSt3__113basic_ostreamIcNS_11char_traitsIcEEEE4Rank, symObjAddr: 0x13C, symBinAddr: 0x100003C3C, symSize: 0x40 }
  - { offsetInCU: 0x8681, offset: 0x8681, size: 0x8, addend: 0x0, symName: __ZrsRNSt3__113basic_istreamIcNS_11char_traitsIcEEEER4Rank, symObjAddr: 0x1C4, symBinAddr: 0x100003CC4, symSize: 0xBC }
  - { offsetInCU: 0x86C9, offset: 0x86C9, size: 0x8, addend: 0x0, symName: __ZNSt3__112basic_stringIcNS_11char_traitsIcEENS_9allocatorIcEEEC1B8ue170006Ev, symObjAddr: 0x280, symBinAddr: 0x100003D80, symSize: 0x2C }
  - { offsetInCU: 0x86F1, offset: 0x86F1, size: 0x8, addend: 0x0, symName: __ZNKSt3__19basic_iosIcNS_11char_traitsIcEEEcvbB8ue170006Ev, symObjAddr: 0x5B8, symBinAddr: 0x1000040B8, symSize: 0x2C }
  - { offsetInCU: 0x8715, offset: 0x8715, size: 0x8, addend: 0x0, symName: __Z14string_to_suitRKNSt3__112basic_stringIcNS_11char_traitsIcEENS_9allocatorIcEEEE, symObjAddr: 0x5E4, symBinAddr: 0x1000040E4, symSize: 0x90 }
  - { offsetInCU: 0x875D, offset: 0x875D, size: 0x8, addend: 0x0, symName: __ZlsRNSt3__113basic_ostreamIcNS_11char_traitsIcEEEE4Suit, symObjAddr: 0x674, symBinAddr: 0x100004174, symSize: 0x40 }
  - { offsetInCU: 0x8797, offset: 0x8797, size: 0x8, addend: 0x0, symName: __ZrsRNSt3__113basic_istreamIcNS_11char_traitsIcEEEER4Suit, symObjAddr: 0x6B4, symBinAddr: 0x1000041B4, symSize: 0xBC }
  - { offsetInCU: 0x88E4, offset: 0x88E4, size: 0x8, addend: 0x0, symName: __ZN4CardC2Ev, symObjAddr: 0x770, symBinAddr: 0x100004270, symSize: 0x1C }
  - { offsetInCU: 0x890F, offset: 0x890F, size: 0x8, addend: 0x0, symName: __ZN4CardC1Ev, symObjAddr: 0x78C, symBinAddr: 0x10000428C, symSize: 0x2C }
  - { offsetInCU: 0x8938, offset: 0x8938, size: 0x8, addend: 0x0, symName: __ZN4CardC2E4Rank4Suit, symObjAddr: 0x7B8, symBinAddr: 0x1000042B8, symSize: 0x2C }
  - { offsetInCU: 0x897F, offset: 0x897F, size: 0x8, addend: 0x0, symName: __ZN4CardC1E4Rank4Suit, symObjAddr: 0x7E4, symBinAddr: 0x1000042E4, symSize: 0x3C }
  - { offsetInCU: 0x89C5, offset: 0x89C5, size: 0x8, addend: 0x0, symName: __ZNK4Card8get_rankEv, symObjAddr: 0x820, symBinAddr: 0x100004320, symSize: 0x18 }
  - { offsetInCU: 0x89EC, offset: 0x89EC, size: 0x8, addend: 0x0, symName: __ZNK4Card8get_suitEv, symObjAddr: 0x838, symBinAddr: 0x100004338, symSize: 0x18 }
  - { offsetInCU: 0x8A13, offset: 0x8A13, size: 0x8, addend: 0x0, symName: __ZNK4Card8get_suitE4Suit, symObjAddr: 0x850, symBinAddr: 0x100004350, symSize: 0x58 }
  - { offsetInCU: 0x8A48, offset: 0x8A48, size: 0x8, addend: 0x0, symName: __ZNK4Card13is_left_bowerE4Suit, symObjAddr: 0x8A8, symBinAddr: 0x1000043A8, symSize: 0x74 }
  - { offsetInCU: 0x8A7D, offset: 0x8A7D, size: 0x8, addend: 0x0, symName: __ZNK4Card14is_face_or_aceEv, symObjAddr: 0x91C, symBinAddr: 0x10000441C, symSize: 0x24 }
  - { offsetInCU: 0x8AA4, offset: 0x8AA4, size: 0x8, addend: 0x0, symName: __ZNK4Card14is_right_bowerE4Suit, symObjAddr: 0x940, symBinAddr: 0x100004440, symSize: 0x5C }
  - { offsetInCU: 0x8AD8, offset: 0x8AD8, size: 0x8, addend: 0x0, symName: __Z9Suit_next4Suit, symObjAddr: 0x99C, symBinAddr: 0x10000449C, symSize: 0x7C }
  - { offsetInCU: 0x8B05, offset: 0x8B05, size: 0x8, addend: 0x0, symName: __ZNK4Card8is_trumpE4Suit, symObjAddr: 0xA28, symBinAddr: 0x100004528, symSize: 0x64 }
  - { offsetInCU: 0x8B39, offset: 0x8B39, size: 0x8, addend: 0x0, symName: __ZlsRNSt3__113basic_ostreamIcNS_11char_traitsIcEEEERK4Card, symObjAddr: 0xA8C, symBinAddr: 0x10000458C, symSize: 0x7C }
  - { offsetInCU: 0x8B73, offset: 0x8B73, size: 0x8, addend: 0x0, symName: __ZrsRNSt3__113basic_istreamIcNS_11char_traitsIcEEEER4Card, symObjAddr: 0xB08, symBinAddr: 0x100004608, symSize: 0x130 }
  - { offsetInCU: 0x8BD8, offset: 0x8BD8, size: 0x8, addend: 0x0, symName: __ZltRK4CardS1_, symObjAddr: 0xC38, symBinAddr: 0x100004738, symSize: 0x48 }
  - { offsetInCU: 0x8C12, offset: 0x8C12, size: 0x8, addend: 0x0, symName: __ZleRK4CardS1_, symObjAddr: 0xC80, symBinAddr: 0x100004780, symSize: 0x48 }
  - { offsetInCU: 0x8C4C, offset: 0x8C4C, size: 0x8, addend: 0x0, symName: __ZgtRK4CardS1_, symObjAddr: 0xCC8, symBinAddr: 0x1000047C8, symSize: 0x48 }
  - { offsetInCU: 0x8C86, offset: 0x8C86, size: 0x8, addend: 0x0, symName: __ZgeRK4CardS1_, symObjAddr: 0xD10, symBinAddr: 0x100004810, symSize: 0x48 }
  - { offsetInCU: 0x8CC0, offset: 0x8CC0, size: 0x8, addend: 0x0, symName: __ZeqRK4CardS1_, symObjAddr: 0xD58, symBinAddr: 0x100004858, symSize: 0x88 }
  - { offsetInCU: 0x8CFA, offset: 0x8CFA, size: 0x8, addend: 0x0, symName: __ZneRK4CardS1_, symObjAddr: 0xDE0, symBinAddr: 0x1000048E0, symSize: 0x88 }
  - { offsetInCU: 0x8D34, offset: 0x8D34, size: 0x8, addend: 0x0, symName: __Z9Card_lessRK4CardS1_4Suit, symObjAddr: 0xE68, symBinAddr: 0x100004968, symSize: 0x19C }
  - { offsetInCU: 0x8D98, offset: 0x8D98, size: 0x8, addend: 0x0, symName: __Z9Card_lessRK4CardS1_S1_4Suit, symObjAddr: 0x1004, symBinAddr: 0x100004B04, symSize: 0x1A8 }
  - { offsetInCU: 0x8E35, offset: 0x8E35, size: 0x8, addend: 0x0, symName: __ZNSt3__111char_traitsIcE6lengthB8ue170006EPKc, symObjAddr: 0x11AC, symBinAddr: 0x100004CAC, symSize: 0x34 }
  - { offsetInCU: 0x8E57, offset: 0x8E57, size: 0x8, addend: 0x0, symName: __ZNKSt3__112basic_stringIcNS_11char_traitsIcEENS_9allocatorIcEEE4sizeB8ue170006Ev, symObjAddr: 0x11E0, symBinAddr: 0x100004CE0, symSize: 0x54 }
  - { offsetInCU: 0x8E7B, offset: 0x8E7B, size: 0x8, addend: 0x0, symName: __ZNKSt3__112basic_stringIcNS_11char_traitsIcEENS_9allocatorIcEEE9__is_longB8ue170006Ev, symObjAddr: 0x1264, symBinAddr: 0x100004D64, symSize: 0x38 }
  - { offsetInCU: 0x8E9F, offset: 0x8E9F, size: 0x8, addend: 0x0, symName: __ZNKSt3__112basic_stringIcNS_11char_traitsIcEENS_9allocatorIcEEE15__get_long_sizeB8ue170006Ev, symObjAddr: 0x129C, symBinAddr: 0x100004D9C, symSize: 0x28 }
  - { offsetInCU: 0x8EC3, offset: 0x8EC3, size: 0x8, addend: 0x0, symName: __ZNKSt3__112basic_stringIcNS_11char_traitsIcEENS_9allocatorIcEEE16__get_short_sizeB8ue170006Ev, symObjAddr: 0x12C4, symBinAddr: 0x100004DC4, symSize: 0x34 }
  - { offsetInCU: 0x8EE7, offset: 0x8EE7, size: 0x8, addend: 0x0, symName: __ZNKSt3__117__compressed_pairINS_12basic_stringIcNS_11char_traitsIcEENS_9allocatorIcEEE5__repES5_E5firstB8ue170006Ev, symObjAddr: 0x12F8, symBinAddr: 0x100004DF8, symSize: 0x24 }
  - { offsetInCU: 0x8F0C, offset: 0x8F0C, size: 0x8, addend: 0x0, symName: __ZNKSt3__122__compressed_pair_elemINS_12basic_stringIcNS_11char_traitsIcEENS_9allocatorIcEEE5__repELi0ELb0EE5__getB8ue170006Ev, symObjAddr: 0x131C, symBinAddr: 0x100004E1C, symSize: 0x14 }
  - { offsetInCU: 0x8F4F, offset: 0x8F4F, size: 0x8, addend: 0x0, symName: __ZNKSt3__113basic_ostreamIcNS_11char_traitsIcEEE6sentrycvbB8ue170006Ev, symObjAddr: 0x151C, symBinAddr: 0x10000501C, symSize: 0x1C }
  - { offsetInCU: 0x8F73, offset: 0x8F73, size: 0x8, addend: 0x0, symName: __ZNSt3__119ostreambuf_iteratorIcNS_11char_traitsIcEEEC1B8ue170006ERNS_13basic_ostreamIcS2_EE, symObjAddr: 0x1778, symBinAddr: 0x100005278, symSize: 0x34 }
  - { offsetInCU: 0x8FAA, offset: 0x8FAA, size: 0x8, addend: 0x0, symName: __ZNKSt3__18ios_base5flagsB8ue170006Ev, symObjAddr: 0x17AC, symBinAddr: 0x1000052AC, symSize: 0x18 }
  - { offsetInCU: 0x8FD1, offset: 0x8FD1, size: 0x8, addend: 0x0, symName: __ZNKSt3__19basic_iosIcNS_11char_traitsIcEEE4fillB8ue170006Ev, symObjAddr: 0x17C4, symBinAddr: 0x1000052C4, symSize: 0x64 }
  - { offsetInCU: 0x8FF8, offset: 0x8FF8, size: 0x8, addend: 0x0, symName: __ZNKSt3__119ostreambuf_iteratorIcNS_11char_traitsIcEEE6failedB8ue170006Ev, symObjAddr: 0x1828, symBinAddr: 0x100005328, symSize: 0x24 }
  - { offsetInCU: 0x901C, offset: 0x901C, size: 0x8, addend: 0x0, symName: __ZNSt3__19basic_iosIcNS_11char_traitsIcEEE8setstateB8ue170006Ej, symObjAddr: 0x184C, symBinAddr: 0x10000534C, symSize: 0x2C }
  - { offsetInCU: 0x9050, offset: 0x9050, size: 0x8, addend: 0x0, symName: __ZNKSt3__18ios_base5widthB8ue170006Ev, symObjAddr: 0x1878, symBinAddr: 0x100005378, symSize: 0x18 }
  - { offsetInCU: 0x9076, offset: 0x9076, size: 0x8, addend: 0x0, symName: __ZNSt3__115basic_streambufIcNS_11char_traitsIcEEE5sputnB8ue170006EPKcl, symObjAddr: 0x1890, symBinAddr: 0x100005390, symSize: 0x3C }
  - { offsetInCU: 0x90B6, offset: 0x90B6, size: 0x8, addend: 0x0, symName: __ZNSt3__112basic_stringIcNS_11char_traitsIcEENS_9allocatorIcEEEC1B8ue170006Emc, symObjAddr: 0x18CC, symBinAddr: 0x1000053CC, symSize: 0x3C }
  - { offsetInCU: 0x90FC, offset: 0x90FC, size: 0x8, addend: 0x0, symName: __ZNSt3__112basic_stringIcNS_11char_traitsIcEENS_9allocatorIcEEE4dataB8ue170006Ev, symObjAddr: 0x1908, symBinAddr: 0x100005408, symSize: 0x28 }
  - { offsetInCU: 0x9121, offset: 0x9121, size: 0x8, addend: 0x0, symName: __ZNSt3__18ios_base5widthB8ue170006El, symObjAddr: 0x1930, symBinAddr: 0x100005430, symSize: 0x2C }
  - { offsetInCU: 0x9165, offset: 0x9165, size: 0x8, addend: 0x0, symName: __ZNSt3__112basic_stringIcNS_11char_traitsIcEENS_9allocatorIcEEEC2B8ue170006Emc, symObjAddr: 0x195C, symBinAddr: 0x10000545C, symSize: 0x4C }
  - { offsetInCU: 0x91B0, offset: 0x91B0, size: 0x8, addend: 0x0, symName: __ZNSt3__117__compressed_pairINS_12basic_stringIcNS_11char_traitsIcEENS_9allocatorIcEEE5__repES5_EC1B8ue170006INS_18__default_init_tagESA_EEOT_OT0_, symObjAddr: 0x19A8, symBinAddr: 0x1000054A8, symSize: 0x3C }
  - { offsetInCU: 0x9206, offset: 0x9206, size: 0x8, addend: 0x0, symName: __ZNSt3__117__compressed_pairINS_12basic_stringIcNS_11char_traitsIcEENS_9allocatorIcEEE5__repES5_EC2B8ue170006INS_18__default_init_tagESA_EEOT_OT0_, symObjAddr: 0x19E4, symBinAddr: 0x1000054E4, symSize: 0x3C }
  - { offsetInCU: 0x925D, offset: 0x925D, size: 0x8, addend: 0x0, symName: __ZNSt3__122__compressed_pair_elemINS_12basic_stringIcNS_11char_traitsIcEENS_9allocatorIcEEE5__repELi0ELb0EEC2B8ue170006ENS_18__default_init_tagE, symObjAddr: 0x1A20, symBinAddr: 0x100005520, symSize: 0x14 }
  - { offsetInCU: 0x9290, offset: 0x9290, size: 0x8, addend: 0x0, symName: __ZNSt3__122__compressed_pair_elemINS_9allocatorIcEELi1ELb1EEC2B8ue170006ENS_18__default_init_tagE, symObjAddr: 0x1A34, symBinAddr: 0x100005534, symSize: 0x2C }
  - { offsetInCU: 0x92C3, offset: 0x92C3, size: 0x8, addend: 0x0, symName: __ZNSt3__19allocatorIcEC2B8ue170006Ev, symObjAddr: 0x1A60, symBinAddr: 0x100005560, symSize: 0x2C }
  - { offsetInCU: 0x92EC, offset: 0x92EC, size: 0x8, addend: 0x0, symName: __ZNSt3__116__non_trivial_ifILb1ENS_9allocatorIcEEEC2B8ue170006Ev, symObjAddr: 0x1A8C, symBinAddr: 0x10000558C, symSize: 0x14 }
  - { offsetInCU: 0x9314, offset: 0x9314, size: 0x8, addend: 0x0, symName: __ZNSt3__112basic_stringIcNS_11char_traitsIcEENS_9allocatorIcEEE13__get_pointerB8ue170006Ev, symObjAddr: 0x1AB4, symBinAddr: 0x1000055B4, symSize: 0x54 }
  - { offsetInCU: 0x9338, offset: 0x9338, size: 0x8, addend: 0x0, symName: __ZNSt3__112basic_stringIcNS_11char_traitsIcEENS_9allocatorIcEEE18__get_long_pointerB8ue170006Ev, symObjAddr: 0x1B08, symBinAddr: 0x100005608, symSize: 0x28 }
  - { offsetInCU: 0x935C, offset: 0x935C, size: 0x8, addend: 0x0, symName: __ZNSt3__112basic_stringIcNS_11char_traitsIcEENS_9allocatorIcEEE19__get_short_pointerB8ue170006Ev, symObjAddr: 0x1B30, symBinAddr: 0x100005630, symSize: 0x28 }
  - { offsetInCU: 0x9380, offset: 0x9380, size: 0x8, addend: 0x0, symName: __ZNSt3__117__compressed_pairINS_12basic_stringIcNS_11char_traitsIcEENS_9allocatorIcEEE5__repES5_E5firstB8ue170006Ev, symObjAddr: 0x1B58, symBinAddr: 0x100005658, symSize: 0x24 }
  - { offsetInCU: 0x93A5, offset: 0x93A5, size: 0x8, addend: 0x0, symName: __ZNSt3__122__compressed_pair_elemINS_12basic_stringIcNS_11char_traitsIcEENS_9allocatorIcEEE5__repELi0ELb0EE5__getB8ue170006Ev, symObjAddr: 0x1B7C, symBinAddr: 0x10000567C, symSize: 0x14 }
  - { offsetInCU: 0x93CA, offset: 0x93CA, size: 0x8, addend: 0x0, symName: __ZNSt3__114pointer_traitsIPcE10pointer_toB8ue170006ERc, symObjAddr: 0x1B90, symBinAddr: 0x100005690, symSize: 0x14 }
  - { offsetInCU: 0x93EC, offset: 0x93EC, size: 0x8, addend: 0x0, symName: __ZNSt3__119ostreambuf_iteratorIcNS_11char_traitsIcEEEC2B8ue170006ERNS_13basic_ostreamIcS2_EE, symObjAddr: 0x1BA4, symBinAddr: 0x1000056A4, symSize: 0x54 }
  - { offsetInCU: 0x9423, offset: 0x9423, size: 0x8, addend: 0x0, symName: __ZNKSt3__19basic_iosIcNS_11char_traitsIcEEE5rdbufB8ue170006Ev, symObjAddr: 0x1BF8, symBinAddr: 0x1000056F8, symSize: 0x24 }
  - { offsetInCU: 0x944A, offset: 0x944A, size: 0x8, addend: 0x0, symName: __ZNKSt3__18ios_base5rdbufB8ue170006Ev, symObjAddr: 0x1C1C, symBinAddr: 0x10000571C, symSize: 0x18 }
  - { offsetInCU: 0x946F, offset: 0x946F, size: 0x8, addend: 0x0, symName: __ZNSt3__111char_traitsIcE11eq_int_typeB8ue170006Eii, symObjAddr: 0x1C34, symBinAddr: 0x100005734, symSize: 0x28 }
  - { offsetInCU: 0x94A2, offset: 0x94A2, size: 0x8, addend: 0x0, symName: __ZNSt3__111char_traitsIcE3eofB8ue170006Ev, symObjAddr: 0x1C5C, symBinAddr: 0x10000575C, symSize: 0x8 }
  - { offsetInCU: 0x94B6, offset: 0x94B6, size: 0x8, addend: 0x0, symName: __ZNKSt3__19basic_iosIcNS_11char_traitsIcEEE5widenB8ue170006Ec, symObjAddr: 0x1C64, symBinAddr: 0x100005764, symSize: 0x84 }
  - { offsetInCU: 0x9518, offset: 0x9518, size: 0x8, addend: 0x0, symName: __ZNKSt3__15ctypeIcE5widenB8ue170006Ec, symObjAddr: 0x1D14, symBinAddr: 0x100005814, symSize: 0x38 }
  - { offsetInCU: 0x954C, offset: 0x954C, size: 0x8, addend: 0x0, symName: __ZNSt3__18ios_base8setstateB8ue170006Ej, symObjAddr: 0x1D4C, symBinAddr: 0x10000584C, symSize: 0x34 }
  - { offsetInCU: 0x9581, offset: 0x9581, size: 0x8, addend: 0x0, symName: __ZNSt3__112basic_stringIcNS_11char_traitsIcEENS_9allocatorIcEEEC2B8ue170006Ev, symObjAddr: 0x1D80, symBinAddr: 0x100005880, symSize: 0x48 }
  - { offsetInCU: 0x95A9, offset: 0x95A9, size: 0x8, addend: 0x0, symName: __ZNSt3__112basic_stringIcNS_11char_traitsIcEENS_9allocatorIcEEE14__default_initB8ue170006Ev, symObjAddr: 0x1DC8, symBinAddr: 0x1000058C8, symSize: 0x40 }
  - { offsetInCU: 0x9660, offset: 0x9660, size: 0x8, addend: 0x0, symName: __ZNKSt3__113basic_istreamIcNS_11char_traitsIcEEE6sentrycvbB8ue170006Ev, symObjAddr: 0x1E08, symBinAddr: 0x100005908, symSize: 0x1C }
  - { offsetInCU: 0x9685, offset: 0x9685, size: 0x8, addend: 0x0, symName: __ZNSt3__112basic_stringIcNS_11char_traitsIcEENS_9allocatorIcEEE5clearB8ue170006Ev, symObjAddr: 0x1E24, symBinAddr: 0x100005924, symSize: 0x78 }
  - { offsetInCU: 0x96AB, offset: 0x96AB, size: 0x8, addend: 0x0, symName: __ZNKSt3__112basic_stringIcNS_11char_traitsIcEENS_9allocatorIcEEE8max_sizeB8ue170006Ev, symObjAddr: 0x1E9C, symBinAddr: 0x10000599C, symSize: 0xAC }
  - { offsetInCU: 0x96FC, offset: 0x96FC, size: 0x8, addend: 0x0, symName: __ZNSt3__114numeric_limitsIlE3maxB8ue170006Ev, symObjAddr: 0x1F48, symBinAddr: 0x100005A48, symSize: 0x14 }
  - { offsetInCU: 0x970F, offset: 0x970F, size: 0x8, addend: 0x0, symName: __ZNSt3__115basic_streambufIcNS_11char_traitsIcEEE5sgetcB8ue170006Ev, symObjAddr: 0x1F5C, symBinAddr: 0x100005A5C, symSize: 0x70 }
  - { offsetInCU: 0x9734, offset: 0x9734, size: 0x8, addend: 0x0, symName: __ZNSt3__111char_traitsIcE12to_char_typeB8ue170006Ei, symObjAddr: 0x1FCC, symBinAddr: 0x100005ACC, symSize: 0x18 }
  - { offsetInCU: 0x9756, offset: 0x9756, size: 0x8, addend: 0x0, symName: __ZNKSt3__15ctypeIcE2isB8ue170006Ejc, symObjAddr: 0x1FE4, symBinAddr: 0x100005AE4, symSize: 0x7C }
  - { offsetInCU: 0x9798, offset: 0x9798, size: 0x8, addend: 0x0, symName: __ZNSt3__115basic_streambufIcNS_11char_traitsIcEEE6sbumpcB8ue170006Ev, symObjAddr: 0x2060, symBinAddr: 0x100005B60, symSize: 0x78 }
  - { offsetInCU: 0x97BD, offset: 0x97BD, size: 0x8, addend: 0x0, symName: __ZNSt3__18ios_base18__setstate_nothrowB8ue170006Ej, symObjAddr: 0x20D8, symBinAddr: 0x100005BD8, symSize: 0x64 }
  - { offsetInCU: 0x97F0, offset: 0x97F0, size: 0x8, addend: 0x0, symName: __ZNKSt3__19basic_iosIcNS_11char_traitsIcEEE10exceptionsB8ue170006Ev, symObjAddr: 0x213C, symBinAddr: 0x100005C3C, symSize: 0x24 }
  - { offsetInCU: 0x9815, offset: 0x9815, size: 0x8, addend: 0x0, symName: __ZNSt3__111char_traitsIcE6assignB8ue170006ERcRKc, symObjAddr: 0x2160, symBinAddr: 0x100005C60, symSize: 0x24 }
  - { offsetInCU: 0x9845, offset: 0x9845, size: 0x8, addend: 0x0, symName: __ZNSt3__112basic_stringIcNS_11char_traitsIcEENS_9allocatorIcEEE15__set_long_sizeB8ue170006Em, symObjAddr: 0x2184, symBinAddr: 0x100005C84, symSize: 0x38 }
  - { offsetInCU: 0x9878, offset: 0x9878, size: 0x8, addend: 0x0, symName: __ZNSt3__112basic_stringIcNS_11char_traitsIcEENS_9allocatorIcEEE16__set_short_sizeB8ue170006Em, symObjAddr: 0x21BC, symBinAddr: 0x100005CBC, symSize: 0x78 }
  - { offsetInCU: 0x98B6, offset: 0x98B6, size: 0x8, addend: 0x0, symName: __ZNSt3__116allocator_traitsINS_9allocatorIcEEE8max_sizeB8ue170006IS2_vEEmRKS2_, symObjAddr: 0x2234, symBinAddr: 0x100005D34, symSize: 0x24 }
  - { offsetInCU: 0x98E3, offset: 0x98E3, size: 0x8, addend: 0x0, symName: __ZNKSt3__112basic_stringIcNS_11char_traitsIcEENS_9allocatorIcEEE7__allocB8ue170006Ev, symObjAddr: 0x2258, symBinAddr: 0x100005D58, symSize: 0x24 }
  - { offsetInCU: 0x9908, offset: 0x9908, size: 0x8, addend: 0x0, symName: __ZNSt3__114numeric_limitsImE3maxB8ue170006Ev, symObjAddr: 0x227C, symBinAddr: 0x100005D7C, symSize: 0x14 }
  - { offsetInCU: 0x991C, offset: 0x991C, size: 0x8, addend: 0x0, symName: __ZNKSt3__19allocatorIcE8max_sizeB8ue170006Ev, symObjAddr: 0x2290, symBinAddr: 0x100005D90, symSize: 0x14 }
  - { offsetInCU: 0x9940, offset: 0x9940, size: 0x8, addend: 0x0, symName: __ZNKSt3__117__compressed_pairINS_12basic_stringIcNS_11char_traitsIcEENS_9allocatorIcEEE5__repES5_E6secondB8ue170006Ev, symObjAddr: 0x22A4, symBinAddr: 0x100005DA4, symSize: 0x24 }
  - { offsetInCU: 0x9965, offset: 0x9965, size: 0x8, addend: 0x0, symName: __ZNKSt3__122__compressed_pair_elemINS_9allocatorIcEELi1ELb1EE5__getB8ue170006Ev, symObjAddr: 0x22C8, symBinAddr: 0x100005DC8, symSize: 0x14 }
  - { offsetInCU: 0x998A, offset: 0x998A, size: 0x8, addend: 0x0, symName: __ZNSt3__123__libcpp_numeric_limitsImLb1EE3maxB8ue170006Ev, symObjAddr: 0x22DC, symBinAddr: 0x100005DDC, symSize: 0x8 }
  - { offsetInCU: 0x999E, offset: 0x999E, size: 0x8, addend: 0x0, symName: __ZNSt3__123__libcpp_numeric_limitsIlLb1EE3maxB8ue170006Ev, symObjAddr: 0x22E4, symBinAddr: 0x100005DE4, symSize: 0x8 }
  - { offsetInCU: 0x99B2, offset: 0x99B2, size: 0x8, addend: 0x0, symName: __ZNSt3__111char_traitsIcE11to_int_typeB8ue170006Ec, symObjAddr: 0x22EC, symBinAddr: 0x100005DEC, symSize: 0x14 }
  - { offsetInCU: 0x99D5, offset: 0x99D5, size: 0x8, addend: 0x0, symName: __Z7isasciii, symObjAddr: 0x2300, symBinAddr: 0x100005E00, symSize: 0x24 }
  - { offsetInCU: 0x9A02, offset: 0x9A02, size: 0x8, addend: 0x0, symName: __ZNKSt3__18ios_base10exceptionsB8ue170006Ev, symObjAddr: 0x2324, symBinAddr: 0x100005E24, symSize: 0x18 }
  - { offsetInCU: 0x9A28, offset: 0x9A28, size: 0x8, addend: 0x0, symName: __ZNKSt3__19basic_iosIcNS_11char_traitsIcEEE4failB8ue170006Ev, symObjAddr: 0x233C, symBinAddr: 0x100005E3C, symSize: 0x28 }
  - { offsetInCU: 0x9A4D, offset: 0x9A4D, size: 0x8, addend: 0x0, symName: __ZNKSt3__18ios_base4failB8ue170006Ev, symObjAddr: 0x2364, symBinAddr: 0x100005E64, symSize: 0x28 }
  - { offsetInCU: 0x26, offset: 0x9B20, size: 0x8, addend: 0x0, symName: __ZN4PackC2Ev, symObjAddr: 0x0, symBinAddr: 0x100005E8C, symSize: 0xE4 }
  - { offsetInCU: 0x6312, offset: 0xFE0C, size: 0x8, addend: 0x0, symName: __ZN4PackC2Ev, symObjAddr: 0x0, symBinAddr: 0x100005E8C, symSize: 0xE4 }
  - { offsetInCU: 0x63C8, offset: 0xFEC2, size: 0x8, addend: 0x0, symName: __ZNSt3__15arrayI4CardLm24EEC1Ev, symObjAddr: 0xE4, symBinAddr: 0x100005F70, symSize: 0x2C }
  - { offsetInCU: 0x63F2, offset: 0xFEEC, size: 0x8, addend: 0x0, symName: __ZNSt3__15arrayI4CardLm24EEixB8ue170006Em, symObjAddr: 0x110, symBinAddr: 0x100005F9C, symSize: 0x20 }
  - { offsetInCU: 0x6425, offset: 0xFF1F, size: 0x8, addend: 0x0, symName: __ZN4PackC1Ev, symObjAddr: 0x130, symBinAddr: 0x100005FBC, symSize: 0x2C }
  - { offsetInCU: 0x644F, offset: 0xFF49, size: 0x8, addend: 0x0, symName: __ZN4PackC2ERNSt3__113basic_istreamIcNS0_11char_traitsIcEEEE, symObjAddr: 0x15C, symBinAddr: 0x100005FE8, symSize: 0x90 }
  - { offsetInCU: 0x64A3, offset: 0xFF9D, size: 0x8, addend: 0x0, symName: __ZN4PackC1ERNSt3__113basic_istreamIcNS0_11char_traitsIcEEEE, symObjAddr: 0x1EC, symBinAddr: 0x100006078, symSize: 0x34 }
  - { offsetInCU: 0x64DB, offset: 0xFFD5, size: 0x8, addend: 0x0, symName: __ZN4Pack8deal_oneEv, symObjAddr: 0x220, symBinAddr: 0x1000060AC, symSize: 0x80 }
  - { offsetInCU: 0x6502, offset: 0xFFFC, size: 0x8, addend: 0x0, symName: __ZN4Pack5resetEv, symObjAddr: 0x2A0, symBinAddr: 0x10000612C, symSize: 0x18 }
  - { offsetInCU: 0x6529, offset: 0x10023, size: 0x8, addend: 0x0, symName: __ZNK4Pack5emptyEv, symObjAddr: 0x2B8, symBinAddr: 0x100006144, symSize: 0x24 }
  - { offsetInCU: 0x6550, offset: 0x1004A, size: 0x8, addend: 0x0, symName: __ZN4Pack7shuffleEv, symObjAddr: 0x2DC, symBinAddr: 0x100006168, symSize: 0x150 }
  - { offsetInCU: 0x65D9, offset: 0x100D3, size: 0x8, addend: 0x0, symName: __ZNSt3__15arrayI4CardLm24EEC2Ev, symObjAddr: 0x42C, symBinAddr: 0x1000062B8, symSize: 0x68 }
  - { offsetInCU: 0x52, offset: 0x1015E, size: 0x8, addend: 0x0, symName: __ZL31register_test_pack_default_ctor, symObjAddr: 0x7CD70, symBinAddr: 0x100014000, symSize: 0x0 }
  - { offsetInCU: 0x1054D, offset: 0x20659, size: 0x8, addend: 0x0, symName: __ZNSt3__1ltB8ue170006IcNS_11char_traitsIcEENS_9allocatorIcEEEEbRKNS_12basic_stringIT_T0_T1_EESB_, symObjAddr: 0x15C8, symBinAddr: 0x1000078E8, symSize: 0x38 }
  - { offsetInCU: 0x105A5, offset: 0x206B1, size: 0x8, addend: 0x0, symName: __ZNSt3__13minB8ue170006ImEERKT_S3_S3_, symObjAddr: 0x18A8, symBinAddr: 0x100007B74, symSize: 0x2C }
  - { offsetInCU: 0x105E8, offset: 0x206F4, size: 0x8, addend: 0x0, symName: __ZNSt3__112__to_addressB8ue170006IKcEEPT_S3_, symObjAddr: 0x19AC, symBinAddr: 0x100007BA0, symSize: 0x14 }
  - { offsetInCU: 0x10650, offset: 0x2075C, size: 0x8, addend: 0x0, symName: __ZNSt3__13minB8ue170006ImNS_6__lessIvvEEEERKT_S5_S5_T0_, symObjAddr: 0x1A78, symBinAddr: 0x100007C6C, symSize: 0x54 }
  - { offsetInCU: 0x106F1, offset: 0x207FD, size: 0x8, addend: 0x0, symName: __ZNSt3__17launderB8ue170006IKNS_4pairIKNS_12basic_stringIcNS_11char_traitsIcEENS_9allocatorIcEEEEN19unit_test_framework8TestCaseEEEEEPT_SE_, symObjAddr: 0x1B68, symBinAddr: 0x100007D5C, symSize: 0x24 }
  - { offsetInCU: 0x10728, offset: 0x20834, size: 0x8, addend: 0x0, symName: __ZNSt3__19__launderB8ue170006IKNS_4pairIKNS_12basic_stringIcNS_11char_traitsIcEENS_9allocatorIcEEEEN19unit_test_framework8TestCaseEEEEEPT_SE_, symObjAddr: 0x1B8C, symBinAddr: 0x100007D80, symSize: 0x14 }
  - { offsetInCU: 0x1077E, offset: 0x2088A, size: 0x8, addend: 0x0, symName: __ZNSt3__117__libcpp_allocateB8ue170006Emm, symObjAddr: 0x1E40, symBinAddr: 0x100008034, symSize: 0x60 }
  - { offsetInCU: 0x107D8, offset: 0x208E4, size: 0x8, addend: 0x0, symName: __ZNSt3__124__is_overaligned_for_newB8ue170006Em, symObjAddr: 0x1EB8, symBinAddr: 0x1000080AC, symSize: 0x20 }
  - { offsetInCU: 0x10807, offset: 0x20913, size: 0x8, addend: 0x0, symName: __ZNSt3__121__libcpp_operator_newB8ue170006IJmSt11align_val_tEEEPvDpT_, symObjAddr: 0x1ED8, symBinAddr: 0x1000080CC, symSize: 0x2C }
  - { offsetInCU: 0x10857, offset: 0x20963, size: 0x8, addend: 0x0, symName: __ZNSt3__121__libcpp_operator_newB8ue170006IJmEEEPvDpT_, symObjAddr: 0x1F04, symBinAddr: 0x1000080F8, symSize: 0x24 }
  - { offsetInCU: 0x10892, offset: 0x2099E, size: 0x8, addend: 0x0, symName: __ZNSt3__17launderB8ue170006INS_4pairIKNS_12basic_stringIcNS_11char_traitsIcEENS_9allocatorIcEEEEN19unit_test_framework8TestCaseEEEEEPT_SD_, symObjAddr: 0x22DC, symBinAddr: 0x100008458, symSize: 0x24 }
  - { offsetInCU: 0x108C9, offset: 0x209D5, size: 0x8, addend: 0x0, symName: __ZNSt3__19__launderB8ue170006INS_4pairIKNS_12basic_stringIcNS_11char_traitsIcEENS_9allocatorIcEEEEN19unit_test_framework8TestCaseEEEEEPT_SD_, symObjAddr: 0x2300, symBinAddr: 0x10000847C, symSize: 0x14 }
  - { offsetInCU: 0x10901, offset: 0x20A0D, size: 0x8, addend: 0x0, symName: __ZNSt3__127__tree_balance_after_insertB8ue170006IPNS_16__tree_node_baseIPvEEEEvT_S5_, symObjAddr: 0x239C, symBinAddr: 0x100008518, symSize: 0x32C }
  - { offsetInCU: 0x1097E, offset: 0x20A8A, size: 0x8, addend: 0x0, symName: __ZNSt3__120__tree_is_left_childB8ue170006IPNS_16__tree_node_baseIPvEEEEbT_, symObjAddr: 0x2708, symBinAddr: 0x100008884, symSize: 0x2C }
  - { offsetInCU: 0x109B3, offset: 0x20ABF, size: 0x8, addend: 0x0, symName: __ZNSt3__118__tree_left_rotateB8ue170006IPNS_16__tree_node_baseIPvEEEEvT_, symObjAddr: 0x2734, symBinAddr: 0x1000088B0, symSize: 0xD8 }
  - { offsetInCU: 0x109F6, offset: 0x20B02, size: 0x8, addend: 0x0, symName: __ZNSt3__119__tree_right_rotateB8ue170006IPNS_16__tree_node_baseIPvEEEEvT_, symObjAddr: 0x280C, symBinAddr: 0x100008988, symSize: 0xCC }
  - { offsetInCU: 0x10A39, offset: 0x20B45, size: 0x8, addend: 0x0, symName: __ZNSt3__119__libcpp_deallocateB8ue170006EPvmm, symObjAddr: 0x2B48, symBinAddr: 0x100008CC4, symSize: 0x60 }
  - { offsetInCU: 0x10A9F, offset: 0x20BAB, size: 0x8, addend: 0x0, symName: __ZNSt3__127__do_deallocate_handle_sizeB8ue170006IJSt11align_val_tEEEvPvmDpT_, symObjAddr: 0x2BA8, symBinAddr: 0x100008D24, symSize: 0x30 }
  - { offsetInCU: 0x10AF5, offset: 0x20C01, size: 0x8, addend: 0x0, symName: __ZNSt3__127__do_deallocate_handle_sizeB8ue170006IJEEEvPvmDpT_, symObjAddr: 0x2BD8, symBinAddr: 0x100008D54, symSize: 0x28 }
  - { offsetInCU: 0x10B35, offset: 0x20C41, size: 0x8, addend: 0x0, symName: __ZNSt3__124__libcpp_operator_deleteB8ue170006IJPvSt11align_val_tEEEvDpT_, symObjAddr: 0x2C00, symBinAddr: 0x100008D7C, symSize: 0x2C }
  - { offsetInCU: 0x10B82, offset: 0x20C8E, size: 0x8, addend: 0x0, symName: __ZNSt3__124__libcpp_operator_deleteB8ue170006IJPvEEEvDpT_, symObjAddr: 0x2C2C, symBinAddr: 0x100008DA8, symSize: 0x24 }
  - { offsetInCU: 0x11CD2, offset: 0x21DDE, size: 0x8, addend: 0x0, symName: __ZNSt3__14endlB8ue170006IcNS_11char_traitsIcEEEERNS_13basic_ostreamIT_T0_EES7_, symObjAddr: 0x4B5C, symBinAddr: 0x10000A1B0, symSize: 0x58 }
  - { offsetInCU: 0x11D12, offset: 0x21E1E, size: 0x8, addend: 0x0, symName: __ZNSt3__1neB8ue170006IPNS_12basic_stringIcNS_11char_traitsIcEENS_9allocatorIcEEEEEEbRKNS_11__wrap_iterIT_EESC_, symObjAddr: 0x543C, symBinAddr: 0x10000AA90, symSize: 0x34 }
  - { offsetInCU: 0x11D55, offset: 0x21E61, size: 0x8, addend: 0x0, symName: __ZNSt3__1eqB8ue170006ERKNS_14__map_iteratorINS_15__tree_iteratorINS_12__value_typeINS_12basic_stringIcNS_11char_traitsIcEENS_9allocatorIcEEEEN19unit_test_framework8TestCaseEEEPNS_11__tree_nodeISB_PvEElEEEESJ_, symObjAddr: 0x5488, symBinAddr: 0x10000AADC, symSize: 0x30 }
  - { offsetInCU: 0x11D92, offset: 0x21E9E, size: 0x8, addend: 0x0, symName: __ZNSt3__13endB8ue170006INS_3mapINS_12basic_stringIcNS_11char_traitsIcEENS_9allocatorIcEEEEN19unit_test_framework8TestCaseENS_4lessIS7_EENS5_INS_4pairIKS7_S9_EEEEEEEEDTcldtfp_3endEERT_, symObjAddr: 0x54F8, symBinAddr: 0x10000AB4C, symSize: 0x2C }
  - { offsetInCU: 0x11DC7, offset: 0x21ED3, size: 0x8, addend: 0x0, symName: __ZNSt3__1plB8ue170006IcNS_11char_traitsIcEENS_9allocatorIcEEEENS_12basic_stringIT_T0_T1_EEOS9_PKS6_, symObjAddr: 0x5524, symBinAddr: 0x10000AB78, symSize: 0x40 }
  - { offsetInCU: 0x11E1F, offset: 0x21F2B, size: 0x8, addend: 0x0, symName: __ZNSt3__18count_ifB8ue170006INS_14__map_iteratorINS_15__tree_iteratorINS_12__value_typeINS_12basic_stringIcNS_11char_traitsIcEENS_9allocatorIcEEEEN19unit_test_framework8TestCaseEEEPNS_11__tree_nodeISC_PvEElEEEEZNSA_9TestSuite9run_testsEiPPcEUlNS_4pairIS9_SB_EEE_EENS_15iterator_traitsIT_E15difference_typeESQ_SQ_T0_, symObjAddr: 0x5AC4, symBinAddr: 0x10000B118, symSize: 0xC4 }
  - { offsetInCU: 0x11E87, offset: 0x21F93, size: 0x8, addend: 0x0, symName: __ZNSt3__18count_ifB8ue170006INS_14__map_iteratorINS_15__tree_iteratorINS_12__value_typeINS_12basic_stringIcNS_11char_traitsIcEENS_9allocatorIcEEEEN19unit_test_framework8TestCaseEEEPNS_11__tree_nodeISC_PvEElEEEEZNSA_9TestSuite9run_testsEiPPcEUlNS_4pairIS9_SB_EEE0_EENS_15iterator_traitsIT_E15difference_typeESQ_SQ_T0_, symObjAddr: 0x5BF8, symBinAddr: 0x10000B24C, symSize: 0xC4 }
  - { offsetInCU: 0x11EEF, offset: 0x21FFB, size: 0x8, addend: 0x0, symName: __ZNSt3__1eqB8ue170006IcNS_11char_traitsIcEENS_9allocatorIcEEEEbPKT_RKNS_12basic_stringIS5_T0_T1_EE, symObjAddr: 0x5E8C, symBinAddr: 0x10000B4E0, symSize: 0xAC }
  - { offsetInCU: 0x11F56, offset: 0x22062, size: 0x8, addend: 0x0, symName: __ZNSt3__15flushB8ue170006IcNS_11char_traitsIcEEEERNS_13basic_ostreamIT_T0_EES7_, symObjAddr: 0x5FC4, symBinAddr: 0x10000B618, symSize: 0x28 }
  - { offsetInCU: 0x11F96, offset: 0x220A2, size: 0x8, addend: 0x0, symName: __ZNSt3__19transformB8ue170006INS_14__map_iteratorINS_15__tree_iteratorINS_12__value_typeINS_12basic_stringIcNS_11char_traitsIcEENS_9allocatorIcEEEEN19unit_test_framework8TestCaseEEEPNS_11__tree_nodeISC_PvEElEEEENS_20back_insert_iteratorINS_6vectorIS9_NS7_IS9_EEEEEEZNSA_9TestSuite21get_test_names_to_runEiPPcEUlRKNS_4pairIS9_SB_EEE_EET0_T_SX_SW_T1_, symObjAddr: 0x60FC, symBinAddr: 0x10000B750, symSize: 0x104 }
  - { offsetInCU: 0x12007, offset: 0x22113, size: 0x8, addend: 0x0, symName: __ZNSt3__15beginB8ue170006INS_3mapINS_12basic_stringIcNS_11char_traitsIcEENS_9allocatorIcEEEEN19unit_test_framework8TestCaseENS_4lessIS7_EENS5_INS_4pairIKS7_S9_EEEEEEEEDTcldtfp_5beginEERT_, symObjAddr: 0x6200, symBinAddr: 0x10000B854, symSize: 0x2C }
  - { offsetInCU: 0x1203C, offset: 0x22148, size: 0x8, addend: 0x0, symName: __ZNSt3__113back_inserterB8ue170006INS_6vectorINS_12basic_stringIcNS_11char_traitsIcEENS_9allocatorIcEEEENS5_IS7_EEEEEENS_20back_insert_iteratorIT_EERSB_, symObjAddr: 0x622C, symBinAddr: 0x10000B880, symSize: 0x2C }
  - { offsetInCU: 0x12071, offset: 0x2217D, size: 0x8, addend: 0x0, symName: __ZNSt3__1neB8ue170006ERKNS_14__map_iteratorINS_15__tree_iteratorINS_12__value_typeINS_12basic_stringIcNS_11char_traitsIcEENS_9allocatorIcEEEEN19unit_test_framework8TestCaseEEEPNS_11__tree_nodeISB_PvEElEEEESJ_, symObjAddr: 0x6258, symBinAddr: 0x10000B8AC, symSize: 0x30 }
  - { offsetInCU: 0x120AE, offset: 0x221BA, size: 0x8, addend: 0x0, symName: __ZNSt3__1lsB8ue170006INS_11char_traitsIcEEEERNS_13basic_ostreamIcT_EES6_c, symObjAddr: 0x62B0, symBinAddr: 0x10000B904, symSize: 0x34 }
  - { offsetInCU: 0x120F4, offset: 0x22200, size: 0x8, addend: 0x0, symName: __ZNSt3__1lsB8ue170006IcNS_11char_traitsIcEENS_9allocatorIcEEEERNS_13basic_ostreamIT_T0_EES9_RKNS_12basic_stringIS6_S7_T1_EE, symObjAddr: 0x62E4, symBinAddr: 0x10000B938, symSize: 0x4C }
  - { offsetInCU: 0x1214C, offset: 0x22258, size: 0x8, addend: 0x0, symName: __ZNSt3__1neB8ue170006ERKNS_15__tree_iteratorINS_12__value_typeINS_12basic_stringIcNS_11char_traitsIcEENS_9allocatorIcEEEEN19unit_test_framework8TestCaseEEEPNS_11__tree_nodeISA_PvEElEESH_, symObjAddr: 0x635C, symBinAddr: 0x10000B9B0, symSize: 0x34 }
  - { offsetInCU: 0x12189, offset: 0x22295, size: 0x8, addend: 0x0, symName: __ZNSt3__1eqB8ue170006ERKNS_15__tree_iteratorINS_12__value_typeINS_12basic_stringIcNS_11char_traitsIcEENS_9allocatorIcEEEEN19unit_test_framework8TestCaseEEEPNS_11__tree_nodeISA_PvEElEESH_, symObjAddr: 0x6390, symBinAddr: 0x10000B9E4, symSize: 0x30 }
  - { offsetInCU: 0x121FA, offset: 0x22306, size: 0x8, addend: 0x0, symName: __ZNSt3__116__tree_next_iterB8ue170006IPNS_15__tree_end_nodeIPNS_16__tree_node_baseIPvEEEES5_EET_T0_, symObjAddr: 0x6450, symBinAddr: 0x10000BAA4, symSize: 0x80 }
  - { offsetInCU: 0x12238, offset: 0x22344, size: 0x8, addend: 0x0, symName: __ZNSt3__110__tree_minB8ue170006IPNS_16__tree_node_baseIPvEEEET_S5_, symObjAddr: 0x64D0, symBinAddr: 0x10000BB24, symSize: 0x40 }
  - { offsetInCU: 0x1226D, offset: 0x22379, size: 0x8, addend: 0x0, symName: __ZNSt3__112__to_addressB8ue170006INS_12basic_stringIcNS_11char_traitsIcEENS_9allocatorIcEEEEEEPT_S8_, symObjAddr: 0x6840, symBinAddr: 0x10000BE94, symSize: 0x14 }
  - { offsetInCU: 0x122A2, offset: 0x223AE, size: 0x8, addend: 0x0, symName: __ZNSt3__13maxB8ue170006ImEERKT_S3_S3_, symObjAddr: 0x6C44, symBinAddr: 0x10000C298, symSize: 0x2C }
  - { offsetInCU: 0x122E5, offset: 0x223F1, size: 0x8, addend: 0x0, symName: __ZNSt3__120__throw_length_errorB8ue170006EPKc, symObjAddr: 0x6D28, symBinAddr: 0x10000C360, symSize: 0x64 }
  - { offsetInCU: 0x12310, offset: 0x2241C, size: 0x8, addend: 0x0, symName: __ZNSt3__13maxB8ue170006ImNS_6__lessIvvEEEERKT_S5_S5_T0_, symObjAddr: 0x6E6C, symBinAddr: 0x10000C4A4, symSize: 0x54 }
  - { offsetInCU: 0x1236A, offset: 0x22476, size: 0x8, addend: 0x0, symName: __ZNSt3__119__allocate_at_leastB8ue170006INS_9allocatorINS_12basic_stringIcNS_11char_traitsIcEENS1_IcEEEEEEEENS_19__allocation_resultINS_16allocator_traitsIT_E7pointerEEERSA_m, symObjAddr: 0x6FDC, symBinAddr: 0x10000C614, symSize: 0x40 }
  - { offsetInCU: 0x123AD, offset: 0x224B9, size: 0x8, addend: 0x0, symName: __ZNSt3__142__uninitialized_allocator_move_if_noexceptB8ue170006INS_9allocatorINS_12basic_stringIcNS_11char_traitsIcEENS1_IcEEEEEENS_16reverse_iteratorIPS6_EESA_SA_EET2_RT_T0_T1_SB_, symObjAddr: 0x7268, symBinAddr: 0x10000C8A0, symSize: 0x12C }
  - { offsetInCU: 0x1244D, offset: 0x22559, size: 0x8, addend: 0x0, symName: __ZNSt3__14swapB8ue170006IPNS_12basic_stringIcNS_11char_traitsIcEENS_9allocatorIcEEEEEENS_9enable_ifIXaasr21is_move_constructibleIT_EE5valuesr18is_move_assignableIS9_EE5valueEvE4typeERS9_SC_, symObjAddr: 0x73E0, symBinAddr: 0x10000CA18, symSize: 0x3C }
  - { offsetInCU: 0x1249E, offset: 0x225AA, size: 0x8, addend: 0x0, symName: __ZNSt3__122__make_exception_guardB8ue170006INS_29_AllocatorDestroyRangeReverseINS_9allocatorINS_12basic_stringIcNS_11char_traitsIcEENS2_IcEEEEEENS_16reverse_iteratorIPS7_EEEEEENS_28__exception_guard_exceptionsIT_EESE_, symObjAddr: 0x752C, symBinAddr: 0x10000CB64, symSize: 0x4C }
  - { offsetInCU: 0x124D4, offset: 0x225E0, size: 0x8, addend: 0x0, symName: __ZNSt3__1neB8ue170006IPNS_12basic_stringIcNS_11char_traitsIcEENS_9allocatorIcEEEES7_EEbRKNS_16reverse_iteratorIT_EERKNS8_IT0_EE, symObjAddr: 0x75BC, symBinAddr: 0x10000CBF4, symSize: 0x48 }
  - { offsetInCU: 0x12520, offset: 0x2262C, size: 0x8, addend: 0x0, symName: __ZNSt3__112__to_addressB8ue170006INS_16reverse_iteratorIPNS_12basic_stringIcNS_11char_traitsIcEENS_9allocatorIcEEEEEEvEEu7__decayIDTclsr19__to_address_helperIT_EE6__callclsr3stdE7declvalIRKSA_EEEEESC_, symObjAddr: 0x7604, symBinAddr: 0x10000CC3C, symSize: 0x24 }
  - { offsetInCU: 0x12580, offset: 0x2268C, size: 0x8, addend: 0x0, symName: __ZNSt3__119__allocator_destroyB8ue170006INS_9allocatorINS_12basic_stringIcNS_11char_traitsIcEENS1_IcEEEEEENS_16reverse_iteratorINS8_IPS6_EEEESB_EEvRT_T0_T1_, symObjAddr: 0x78B4, symBinAddr: 0x10000CEEC, symSize: 0x70 }
  - { offsetInCU: 0x125E6, offset: 0x226F2, size: 0x8, addend: 0x0, symName: __ZNSt3__1neB8ue170006INS_16reverse_iteratorIPNS_12basic_stringIcNS_11char_traitsIcEENS_9allocatorIcEEEEEES9_EEbRKNS1_IT_EERKNS1_IT0_EE, symObjAddr: 0x7960, symBinAddr: 0x10000CF98, symSize: 0x60 }
  - { offsetInCU: 0x12632, offset: 0x2273E, size: 0x8, addend: 0x0, symName: __ZNSt3__112__to_addressB8ue170006INS_16reverse_iteratorINS1_IPNS_12basic_stringIcNS_11char_traitsIcEENS_9allocatorIcEEEEEEEEvEEu7__decayIDTclsr19__to_address_helperIT_EE6__callclsr3stdE7declvalIRKSB_EEEEESD_, symObjAddr: 0x79EC, symBinAddr: 0x10000D024, symSize: 0x24 }
  - { offsetInCU: 0x1276E, offset: 0x2287A, size: 0x8, addend: 0x0, symName: __ZNSt3__1eqB8ue170006IPNS_12basic_stringIcNS_11char_traitsIcEENS_9allocatorIcEEEEEEbRKNS_11__wrap_iterIT_EESC_, symObjAddr: 0x85D4, symBinAddr: 0x10000DC0C, symSize: 0x48 }
  - { offsetInCU: 0x127B1, offset: 0x228BD, size: 0x8, addend: 0x0, symName: __ZNSt3__120__throw_out_of_rangeB8ue170006EPKc, symObjAddr: 0x8880, symBinAddr: 0x10000DEB8, symSize: 0x64 }
  - { offsetInCU: 0x13014, offset: 0x23120, size: 0x8, addend: 0x0, symName: __ZSt28__throw_bad_array_new_lengthB8ue170006v, symObjAddr: 0x1E0C, symBinAddr: 0x100008000, symSize: 0x34 }
  - { offsetInCU: 0x13308, offset: 0x23414, size: 0x8, addend: 0x0, symName: __ZL31register_test_pack_istream_ctor, symObjAddr: 0x7CD71, symBinAddr: 0x100014001, symSize: 0x0 }
  - { offsetInCU: 0x13321, offset: 0x2342D, size: 0x8, addend: 0x0, symName: __ZL24register_test_pack_reset, symObjAddr: 0x7CD72, symBinAddr: 0x100014002, symSize: 0x0 }
  - { offsetInCU: 0x1333A, offset: 0x23446, size: 0x8, addend: 0x0, symName: __ZL24register_test_pack_empty, symObjAddr: 0x7CD73, symBinAddr: 0x100014003, symSize: 0x0 }
  - { offsetInCU: 0x13353, offset: 0x2345F, size: 0x8, addend: 0x0, symName: __ZL26register_test_pack_shuffle, symObjAddr: 0x7CD74, symBinAddr: 0x100014004, symSize: 0x0 }
  - { offsetInCU: 0x1336C, offset: 0x23478, size: 0x8, addend: 0x0, symName: __ZL9destroyer, symObjAddr: 0x7CD75, symBinAddr: 0x100014005, symSize: 0x0 }
  - { offsetInCU: 0x13385, offset: 0x23491, size: 0x8, addend: 0x0, symName: __ZN19unit_test_framework9TestSuite10incompleteE, symObjAddr: 0x7CD78, symBinAddr: 0x100014008, symSize: 0x0 }
  - { offsetInCU: 0x13B74, offset: 0x23C80, size: 0x8, addend: 0x0, symName: __ZN19unit_test_framework9TestSuite8instanceE, symObjAddr: 0x7CD80, symBinAddr: 0x100014010, symSize: 0x0 }
  - { offsetInCU: 0x14028, offset: 0x24134, size: 0x8, addend: 0x0, symName: __ZNSt3__16vectorINS_12basic_stringIcNS_11char_traitsIcEENS_9allocatorIcEEEENS4_IS6_EEE26__swap_out_circular_bufferERNS_14__split_bufferIS6_RS7_EE, symObjAddr: 0x6A4C, symBinAddr: 0x10000C0A0, symSize: 0x110 }
  - { offsetInCU: 0x15E5F, offset: 0x25F6B, size: 0x8, addend: 0x0, symName: __ZNSt3__112basic_stringIcNS_11char_traitsIcEENS_9allocatorIcEEEC1B8ue170006ILi0EEEPKc, symObjAddr: 0x0, symBinAddr: 0x100006320, symSize: 0x34 }
  - { offsetInCU: 0x15E9D, offset: 0x25FA9, size: 0x8, addend: 0x0, symName: __ZL22test_pack_default_ctorv, symObjAddr: 0x34, symBinAddr: 0x100006354, symSize: 0x6C }
  - { offsetInCU: 0x15ED4, offset: 0x25FE0, size: 0x8, addend: 0x0, symName: __ZN19unit_test_framework14TestRegistererC1ERKNSt3__112basic_stringIcNS1_11char_traitsIcEENS1_9allocatorIcEEEEPFvvE, symObjAddr: 0xA0, symBinAddr: 0x1000063C0, symSize: 0x3C }
  - { offsetInCU: 0x15F1A, offset: 0x26026, size: 0x8, addend: 0x0, symName: __ZL22test_pack_istream_ctorv, symObjAddr: 0xDC, symBinAddr: 0x1000063FC, symSize: 0x168 }
  - { offsetInCU: 0x15F6F, offset: 0x2607B, size: 0x8, addend: 0x0, symName: __ZL15test_pack_resetv, symObjAddr: 0x244, symBinAddr: 0x100006564, symSize: 0x84 }
  - { offsetInCU: 0x15FA6, offset: 0x260B2, size: 0x8, addend: 0x0, symName: __ZL15test_pack_emptyv, symObjAddr: 0x2C8, symBinAddr: 0x1000065E8, symSize: 0xB8 }
  - { offsetInCU: 0x15FEB, offset: 0x260F7, size: 0x8, addend: 0x0, symName: __ZL17test_pack_shufflev, symObjAddr: 0x380, symBinAddr: 0x1000066A0, symSize: 0x74 }
  - { offsetInCU: 0x16022, offset: 0x2612E, size: 0x8, addend: 0x0, symName: _main, symObjAddr: 0x3F4, symBinAddr: 0x100006714, symSize: 0x34 }
  - { offsetInCU: 0x16059, offset: 0x26165, size: 0x8, addend: 0x0, symName: __ZN19unit_test_framework9TestSuite3getEv, symObjAddr: 0x428, symBinAddr: 0x100006748, symSize: 0x80 }
  - { offsetInCU: 0x1606D, offset: 0x26179, size: 0x8, addend: 0x0, symName: __ZN19unit_test_framework9TestSuite9run_testsEiPPc, symObjAddr: 0x4A8, symBinAddr: 0x1000067C8, symSize: 0x690 }
  - { offsetInCU: 0x16232, offset: 0x2633E, size: 0x8, addend: 0x0, symName: __ZN19unit_test_framework18TestSuiteDestroyerD1Ev, symObjAddr: 0xB38, symBinAddr: 0x100006E58, symSize: 0x2C }
  - { offsetInCU: 0x1625A, offset: 0x26366, size: 0x8, addend: 0x0, symName: __ZN19unit_test_framework14TestRegistererC2ERKNSt3__112basic_stringIcNS1_11char_traitsIcEENS1_9allocatorIcEEEEPFvvE, symObjAddr: 0xB64, symBinAddr: 0x100006E84, symSize: 0x40 }
  - { offsetInCU: 0x162A0, offset: 0x263AC, size: 0x8, addend: 0x0, symName: __ZN19unit_test_framework9TestSuite8add_testERKNSt3__112basic_stringIcNS1_11char_traitsIcEENS1_9allocatorIcEEEEPFvvE, symObjAddr: 0xBA4, symBinAddr: 0x100006EC4, symSize: 0xD8 }
  - { offsetInCU: 0x162E2, offset: 0x263EE, size: 0x8, addend: 0x0, symName: __ZNSt3__13mapINS_12basic_stringIcNS_11char_traitsIcEENS_9allocatorIcEEEEN19unit_test_framework8TestCaseENS_4lessIS6_EENS4_INS_4pairIKS6_S8_EEEEE6insertB8ue170006EOSD_, symObjAddr: 0xC7C, symBinAddr: 0x100006F9C, symSize: 0x4C }
  - { offsetInCU: 0x16315, offset: 0x26421, size: 0x8, addend: 0x0, symName: __ZN19unit_test_framework8TestCaseC1ERKNSt3__112basic_stringIcNS1_11char_traitsIcEENS1_9allocatorIcEEEEPFvvE, symObjAddr: 0xCC8, symBinAddr: 0x100006FE8, symSize: 0x3C }
  - { offsetInCU: 0x16360, offset: 0x2646C, size: 0x8, addend: 0x0, symName: __ZNSt3__14pairIKNS_12basic_stringIcNS_11char_traitsIcEENS_9allocatorIcEEEEN19unit_test_framework8TestCaseEEC1B8ue170006IRS7_S9_LPv0EEEOT_OT0_, symObjAddr: 0xD04, symBinAddr: 0x100007024, symSize: 0x3C }
  - { offsetInCU: 0x163BD, offset: 0x264C9, size: 0x8, addend: 0x0, symName: __ZNSt3__14pairIKNS_12basic_stringIcNS_11char_traitsIcEENS_9allocatorIcEEEEN19unit_test_framework8TestCaseEED1Ev, symObjAddr: 0xD40, symBinAddr: 0x100007060, symSize: 0x2C }
  - { offsetInCU: 0x163E7, offset: 0x264F3, size: 0x8, addend: 0x0, symName: __ZN19unit_test_framework8TestCaseD1Ev, symObjAddr: 0xD6C, symBinAddr: 0x10000708C, symSize: 0x2C }
  - { offsetInCU: 0x16413, offset: 0x2651F, size: 0x8, addend: 0x0, symName: __ZNSt3__16__treeINS_12__value_typeINS_12basic_stringIcNS_11char_traitsIcEENS_9allocatorIcEEEEN19unit_test_framework8TestCaseEEENS_19__map_value_compareIS7_SA_NS_4lessIS7_EELb1EEENS5_ISA_EEE15__insert_uniqueB8ue170006EONS_4pairIKS7_S9_EE, symObjAddr: 0xD98, symBinAddr: 0x1000070B8, symSize: 0x50 }
  - { offsetInCU: 0x16446, offset: 0x26552, size: 0x8, addend: 0x0, symName: __ZNSt3__14pairINS_14__map_iteratorINS_15__tree_iteratorINS_12__value_typeINS_12basic_stringIcNS_11char_traitsIcEENS_9allocatorIcEEEEN19unit_test_framework8TestCaseEEEPNS_11__tree_nodeISC_PvEElEEEEbEC1B8ue170006ISH_bLSE_0EEEONS0_IT_T0_EE, symObjAddr: 0xDE8, symBinAddr: 0x100007108, symSize: 0x34 }
  - { offsetInCU: 0x16496, offset: 0x265A2, size: 0x8, addend: 0x0, symName: __ZNSt3__16__treeINS_12__value_typeINS_12basic_stringIcNS_11char_traitsIcEENS_9allocatorIcEEEEN19unit_test_framework8TestCaseEEENS_19__map_value_compareIS7_SA_NS_4lessIS7_EELb1EEENS5_ISA_EEE25__emplace_unique_key_argsIS7_JNS_4pairIKS7_S9_EEEEENSI_INS_15__tree_iteratorISA_PNS_11__tree_nodeISA_PvEElEEbEERKT_DpOT0_, symObjAddr: 0xE1C, symBinAddr: 0x10000713C, symSize: 0xF0 }
  - { offsetInCU: 0x16543, offset: 0x2664F, size: 0x8, addend: 0x0, symName: __ZNSt3__122__tree_key_value_typesINS_12__value_typeINS_12basic_stringIcNS_11char_traitsIcEENS_9allocatorIcEEEEN19unit_test_framework8TestCaseEEEE9__get_keyB8ue170006INS_4pairIKS7_S9_EEEENS_9enable_ifIXsr17__is_same_uncvrefIT_SF_EE5valueERSE_E4typeERSH_, symObjAddr: 0xF0C, symBinAddr: 0x10000722C, symSize: 0x14 }
  - { offsetInCU: 0x16570, offset: 0x2667C, size: 0x8, addend: 0x0, symName: __ZNSt3__16__treeINS_12__value_typeINS_12basic_stringIcNS_11char_traitsIcEENS_9allocatorIcEEEEN19unit_test_framework8TestCaseEEENS_19__map_value_compareIS7_SA_NS_4lessIS7_EELb1EEENS5_ISA_EEE12__find_equalIS7_EERPNS_16__tree_node_baseIPvEERPNS_15__tree_end_nodeISL_EERKT_, symObjAddr: 0xF20, symBinAddr: 0x100007240, symSize: 0x184 }
  - { offsetInCU: 0x165DC, offset: 0x266E8, size: 0x8, addend: 0x0, symName: __ZNSt3__16__treeINS_12__value_typeINS_12basic_stringIcNS_11char_traitsIcEENS_9allocatorIcEEEEN19unit_test_framework8TestCaseEEENS_19__map_value_compareIS7_SA_NS_4lessIS7_EELb1EEENS5_ISA_EEE16__construct_nodeIJNS_4pairIKS7_S9_EEEEENS_10unique_ptrINS_11__tree_nodeISA_PvEENS_22__tree_node_destructorINS5_ISO_EEEEEEDpOT_, symObjAddr: 0x10A4, symBinAddr: 0x1000073C4, symSize: 0x110 }
  - { offsetInCU: 0x1663E, offset: 0x2674A, size: 0x8, addend: 0x0, symName: __ZNSt3__16__treeINS_12__value_typeINS_12basic_stringIcNS_11char_traitsIcEENS_9allocatorIcEEEEN19unit_test_framework8TestCaseEEENS_19__map_value_compareIS7_SA_NS_4lessIS7_EELb1EEENS5_ISA_EEE16__insert_node_atEPNS_15__tree_end_nodeIPNS_16__tree_node_baseIPvEEEERSL_SL_, symObjAddr: 0x11B4, symBinAddr: 0x1000074D4, symSize: 0xCC }
  - { offsetInCU: 0x16692, offset: 0x2679E, size: 0x8, addend: 0x0, symName: __ZNKSt3__110unique_ptrINS_11__tree_nodeINS_12__value_typeINS_12basic_stringIcNS_11char_traitsIcEENS_9allocatorIcEEEEN19unit_test_framework8TestCaseEEEPvEENS_22__tree_node_destructorINS6_ISD_EEEEE3getB8ue170006Ev, symObjAddr: 0x1280, symBinAddr: 0x1000075A0, symSize: 0x28 }
  - { offsetInCU: 0x166B6, offset: 0x267C2, size: 0x8, addend: 0x0, symName: __ZNSt3__110unique_ptrINS_11__tree_nodeINS_12__value_typeINS_12basic_stringIcNS_11char_traitsIcEENS_9allocatorIcEEEEN19unit_test_framework8TestCaseEEEPvEENS_22__tree_node_destructorINS6_ISD_EEEEE7releaseB8ue170006Ev, symObjAddr: 0x12A8, symBinAddr: 0x1000075C8, symSize: 0x44 }
  - { offsetInCU: 0x166E9, offset: 0x267F5, size: 0x8, addend: 0x0, symName: __ZNSt3__110unique_ptrINS_11__tree_nodeINS_12__value_typeINS_12basic_stringIcNS_11char_traitsIcEENS_9allocatorIcEEEEN19unit_test_framework8TestCaseEEEPvEENS_22__tree_node_destructorINS6_ISD_EEEEED1B8ue170006Ev, symObjAddr: 0x12EC, symBinAddr: 0x10000760C, symSize: 0x2C }
  - { offsetInCU: 0x16711, offset: 0x2681D, size: 0x8, addend: 0x0, symName: __ZNSt3__115__tree_iteratorINS_12__value_typeINS_12basic_stringIcNS_11char_traitsIcEENS_9allocatorIcEEEEN19unit_test_framework8TestCaseEEEPNS_11__tree_nodeISA_PvEElEC1B8ue170006ESE_, symObjAddr: 0x1318, symBinAddr: 0x100007638, symSize: 0x34 }
  - { offsetInCU: 0x16752, offset: 0x2685E, size: 0x8, addend: 0x0, symName: __ZNSt3__14pairINS_15__tree_iteratorINS_12__value_typeINS_12basic_stringIcNS_11char_traitsIcEENS_9allocatorIcEEEEN19unit_test_framework8TestCaseEEEPNS_11__tree_nodeISB_PvEElEEbEC1B8ue170006ISG_RbLSD_0EEEOT_OT0_, symObjAddr: 0x134C, symBinAddr: 0x10000766C, symSize: 0x3C }
  - { offsetInCU: 0x167AF, offset: 0x268BB, size: 0x8, addend: 0x0, symName: __ZNKSt3__16__treeINS_12__value_typeINS_12basic_stringIcNS_11char_traitsIcEENS_9allocatorIcEEEEN19unit_test_framework8TestCaseEEENS_19__map_value_compareIS7_SA_NS_4lessIS7_EELb1EEENS5_ISA_EEE6__rootB8ue170006Ev, symObjAddr: 0x1388, symBinAddr: 0x1000076A8, symSize: 0x28 }
  - { offsetInCU: 0x167D3, offset: 0x268DF, size: 0x8, addend: 0x0, symName: __ZNKSt3__16__treeINS_12__value_typeINS_12basic_stringIcNS_11char_traitsIcEENS_9allocatorIcEEEEN19unit_test_framework8TestCaseEEENS_19__map_value_compareIS7_SA_NS_4lessIS7_EELb1EEENS5_ISA_EEE10__root_ptrB8ue170006Ev, symObjAddr: 0x13B0, symBinAddr: 0x1000076D0, symSize: 0x24 }
  - { offsetInCU: 0x167F7, offset: 0x26903, size: 0x8, addend: 0x0, symName: __ZNSt3__16__treeINS_12__value_typeINS_12basic_stringIcNS_11char_traitsIcEENS_9allocatorIcEEEEN19unit_test_framework8TestCaseEEENS_19__map_value_compareIS7_SA_NS_4lessIS7_EELb1EEENS5_ISA_EEE10value_compB8ue170006Ev, symObjAddr: 0x13D4, symBinAddr: 0x1000076F4, symSize: 0x28 }
  - { offsetInCU: 0x1681B, offset: 0x26927, size: 0x8, addend: 0x0, symName: __ZNKSt3__119__map_value_compareINS_12basic_stringIcNS_11char_traitsIcEENS_9allocatorIcEEEENS_12__value_typeIS6_N19unit_test_framework8TestCaseEEENS_4lessIS6_EELb1EEclB8ue170006ERKS6_RKSA_, symObjAddr: 0x13FC, symBinAddr: 0x10000771C, symSize: 0x50 }
  - { offsetInCU: 0x1685D, offset: 0x26969, size: 0x8, addend: 0x0, symName: __ZNKSt3__119__map_value_compareINS_12basic_stringIcNS_11char_traitsIcEENS_9allocatorIcEEEENS_12__value_typeIS6_N19unit_test_framework8TestCaseEEENS_4lessIS6_EELb1EEclB8ue170006ERKSA_RKS6_, symObjAddr: 0x144C, symBinAddr: 0x10000776C, symSize: 0x48 }
  - { offsetInCU: 0x1689F, offset: 0x269AB, size: 0x8, addend: 0x0, symName: __ZNSt3__16__treeINS_12__value_typeINS_12basic_stringIcNS_11char_traitsIcEENS_9allocatorIcEEEEN19unit_test_framework8TestCaseEEENS_19__map_value_compareIS7_SA_NS_4lessIS7_EELb1EEENS5_ISA_EEE10__end_nodeB8ue170006Ev, symObjAddr: 0x1494, symBinAddr: 0x1000077B4, symSize: 0x2C }
  - { offsetInCU: 0x168C3, offset: 0x269CF, size: 0x8, addend: 0x0, symName: __ZNKSt3__16__treeINS_12__value_typeINS_12basic_stringIcNS_11char_traitsIcEENS_9allocatorIcEEEEN19unit_test_framework8TestCaseEEENS_19__map_value_compareIS7_SA_NS_4lessIS7_EELb1EEENS5_ISA_EEE10__end_nodeB8ue170006Ev, symObjAddr: 0x14C0, symBinAddr: 0x1000077E0, symSize: 0x2C }
  - { offsetInCU: 0x168E7, offset: 0x269F3, size: 0x8, addend: 0x0, symName: __ZNSt3__114pointer_traitsIPNS_15__tree_end_nodeIPNS_16__tree_node_baseIPvEEEEE10pointer_toB8ue170006ERS6_, symObjAddr: 0x14EC, symBinAddr: 0x10000780C, symSize: 0x14 }
  - { offsetInCU: 0x1690A, offset: 0x26A16, size: 0x8, addend: 0x0, symName: __ZNKSt3__117__compressed_pairINS_15__tree_end_nodeIPNS_16__tree_node_baseIPvEEEENS_9allocatorINS_11__tree_nodeINS_12__value_typeINS_12basic_stringIcNS_11char_traitsIcEENS7_IcEEEEN19unit_test_framework8TestCaseEEES3_EEEEE5firstB8ue170006Ev, symObjAddr: 0x1500, symBinAddr: 0x100007820, symSize: 0x24 }
  - { offsetInCU: 0x1692E, offset: 0x26A3A, size: 0x8, addend: 0x0, symName: __ZNKSt3__122__compressed_pair_elemINS_15__tree_end_nodeIPNS_16__tree_node_baseIPvEEEELi0ELb0EE5__getB8ue170006Ev, symObjAddr: 0x1524, symBinAddr: 0x100007844, symSize: 0x14 }
  - { offsetInCU: 0x16953, offset: 0x26A5F, size: 0x8, addend: 0x0, symName: __ZNSt3__117__compressed_pairImNS_19__map_value_compareINS_12basic_stringIcNS_11char_traitsIcEENS_9allocatorIcEEEENS_12__value_typeIS7_N19unit_test_framework8TestCaseEEENS_4lessIS7_EELb1EEEE6secondB8ue170006Ev, symObjAddr: 0x1538, symBinAddr: 0x100007858, symSize: 0x24 }
  - { offsetInCU: 0x16977, offset: 0x26A83, size: 0x8, addend: 0x0, symName: __ZNSt3__122__compressed_pair_elemINS_19__map_value_compareINS_12basic_stringIcNS_11char_traitsIcEENS_9allocatorIcEEEENS_12__value_typeIS7_N19unit_test_framework8TestCaseEEENS_4lessIS7_EELb1EEELi1ELb1EE5__getB8ue170006Ev, symObjAddr: 0x155C, symBinAddr: 0x10000787C, symSize: 0x14 }
  - { offsetInCU: 0x1699C, offset: 0x26AA8, size: 0x8, addend: 0x0, symName: __ZNKSt3__14lessINS_12basic_stringIcNS_11char_traitsIcEENS_9allocatorIcEEEEEclB8ue170006ERKS6_S9_, symObjAddr: 0x1570, symBinAddr: 0x100007890, symSize: 0x34 }
  - { offsetInCU: 0x169DE, offset: 0x26AEA, size: 0x8, addend: 0x0, symName: __ZNKSt3__112__value_typeINS_12basic_stringIcNS_11char_traitsIcEENS_9allocatorIcEEEEN19unit_test_framework8TestCaseEE11__get_valueB8ue170006Ev, symObjAddr: 0x15A4, symBinAddr: 0x1000078C4, symSize: 0x24 }
  - { offsetInCU: 0x16A02, offset: 0x26B0E, size: 0x8, addend: 0x0, symName: __ZNKSt3__112basic_stringIcNS_11char_traitsIcEENS_9allocatorIcEEE7compareB8ue170006ERKS5_, symObjAddr: 0x1600, symBinAddr: 0x100007920, symSize: 0x4C }
  - { offsetInCU: 0x16A38, offset: 0x26B44, size: 0x8, addend: 0x0, symName: __ZNKSt3__112basic_stringIcNS_11char_traitsIcEENS_9allocatorIcEEE7compareINS_17basic_string_viewIcS2_EELi0EEEiRKT_, symObjAddr: 0x164C, symBinAddr: 0x10000796C, symSize: 0x12C }
  - { offsetInCU: 0x16ABB, offset: 0x26BC7, size: 0x8, addend: 0x0, symName: __ZNKSt3__112basic_stringIcNS_11char_traitsIcEENS_9allocatorIcEEEcvNS_17basic_string_viewIcS2_EEB8ue170006Ev, symObjAddr: 0x1778, symBinAddr: 0x100007A98, symSize: 0x50 }
  - { offsetInCU: 0x16ADF, offset: 0x26BEB, size: 0x8, addend: 0x0, symName: __ZNKSt3__117basic_string_viewIcNS_11char_traitsIcEEE4sizeB8ue170006Ev, symObjAddr: 0x181C, symBinAddr: 0x100007AE8, symSize: 0x18 }
  - { offsetInCU: 0x16B04, offset: 0x26C10, size: 0x8, addend: 0x0, symName: __ZNSt3__111char_traitsIcE7compareB8ue170006EPKcS3_m, symObjAddr: 0x1834, symBinAddr: 0x100007B00, symSize: 0x34 }
  - { offsetInCU: 0x16B43, offset: 0x26C4F, size: 0x8, addend: 0x0, symName: __ZNKSt3__112basic_stringIcNS_11char_traitsIcEENS_9allocatorIcEEE4dataB8ue170006Ev, symObjAddr: 0x1868, symBinAddr: 0x100007B34, symSize: 0x28 }
  - { offsetInCU: 0x16B67, offset: 0x26C73, size: 0x8, addend: 0x0, symName: __ZNKSt3__117basic_string_viewIcNS_11char_traitsIcEEE4dataB8ue170006Ev, symObjAddr: 0x1890, symBinAddr: 0x100007B5C, symSize: 0x18 }
  - { offsetInCU: 0x16B8C, offset: 0x26C98, size: 0x8, addend: 0x0, symName: __ZNKSt3__112basic_stringIcNS_11char_traitsIcEENS_9allocatorIcEEE13__get_pointerB8ue170006Ev, symObjAddr: 0x19C0, symBinAddr: 0x100007BB4, symSize: 0x54 }
  - { offsetInCU: 0x16BB0, offset: 0x26CBC, size: 0x8, addend: 0x0, symName: __ZNKSt3__112basic_stringIcNS_11char_traitsIcEENS_9allocatorIcEEE18__get_long_pointerB8ue170006Ev, symObjAddr: 0x1A14, symBinAddr: 0x100007C08, symSize: 0x28 }
  - { offsetInCU: 0x16BD4, offset: 0x26CE0, size: 0x8, addend: 0x0, symName: __ZNKSt3__112basic_stringIcNS_11char_traitsIcEENS_9allocatorIcEEE19__get_short_pointerB8ue170006Ev, symObjAddr: 0x1A3C, symBinAddr: 0x100007C30, symSize: 0x28 }
  - { offsetInCU: 0x16BF8, offset: 0x26D04, size: 0x8, addend: 0x0, symName: __ZNSt3__114pointer_traitsIPKcE10pointer_toB8ue170006ERS1_, symObjAddr: 0x1A64, symBinAddr: 0x100007C58, symSize: 0x14 }
  - { offsetInCU: 0x16C25, offset: 0x26D31, size: 0x8, addend: 0x0, symName: __ZNKSt3__16__lessIvvEclB8ue170006ImmEEbRKT_RKT0_, symObjAddr: 0x1ACC, symBinAddr: 0x100007CC0, symSize: 0x34 }
  - { offsetInCU: 0x16C78, offset: 0x26D84, size: 0x8, addend: 0x0, symName: __ZNSt3__117basic_string_viewIcNS_11char_traitsIcEEEC1B8ue170006EPKcm, symObjAddr: 0x1B00, symBinAddr: 0x100007CF4, symSize: 0x3C }
  - { offsetInCU: 0x16CBE, offset: 0x26DCA, size: 0x8, addend: 0x0, symName: __ZNSt3__117basic_string_viewIcNS_11char_traitsIcEEEC2B8ue170006EPKcm, symObjAddr: 0x1B3C, symBinAddr: 0x100007D30, symSize: 0x2C }
  - { offsetInCU: 0x16D05, offset: 0x26E11, size: 0x8, addend: 0x0, symName: __ZNSt3__117__compressed_pairINS_15__tree_end_nodeIPNS_16__tree_node_baseIPvEEEENS_9allocatorINS_11__tree_nodeINS_12__value_typeINS_12basic_stringIcNS_11char_traitsIcEENS7_IcEEEEN19unit_test_framework8TestCaseEEES3_EEEEE5firstB8ue170006Ev, symObjAddr: 0x1BA0, symBinAddr: 0x100007D94, symSize: 0x24 }
  - { offsetInCU: 0x16D29, offset: 0x26E35, size: 0x8, addend: 0x0, symName: __ZNSt3__122__compressed_pair_elemINS_15__tree_end_nodeIPNS_16__tree_node_baseIPvEEEELi0ELb0EE5__getB8ue170006Ev, symObjAddr: 0x1BC4, symBinAddr: 0x100007DB8, symSize: 0x14 }
  - { offsetInCU: 0x16D4E, offset: 0x26E5A, size: 0x8, addend: 0x0, symName: __ZNSt3__16__treeINS_12__value_typeINS_12basic_stringIcNS_11char_traitsIcEENS_9allocatorIcEEEEN19unit_test_framework8TestCaseEEENS_19__map_value_compareIS7_SA_NS_4lessIS7_EELb1EEENS5_ISA_EEE12__node_allocB8ue170006Ev, symObjAddr: 0x1BD8, symBinAddr: 0x100007DCC, symSize: 0x28 }
  - { offsetInCU: 0x16D72, offset: 0x26E7E, size: 0x8, addend: 0x0, symName: __ZNSt3__116allocator_traitsINS_9allocatorINS_11__tree_nodeINS_12__value_typeINS_12basic_stringIcNS_11char_traitsIcEENS1_IcEEEEN19unit_test_framework8TestCaseEEEPvEEEEE8allocateB8ue170006ERSE_m, symObjAddr: 0x1C00, symBinAddr: 0x100007DF4, symSize: 0x2C }
  - { offsetInCU: 0x16DA5, offset: 0x26EB1, size: 0x8, addend: 0x0, symName: __ZNSt3__122__tree_node_destructorINS_9allocatorINS_11__tree_nodeINS_12__value_typeINS_12basic_stringIcNS_11char_traitsIcEENS1_IcEEEEN19unit_test_framework8TestCaseEEEPvEEEEEC1B8ue170006ERSE_b, symObjAddr: 0x1C2C, symBinAddr: 0x100007E20, symSize: 0x48 }
  - { offsetInCU: 0x16DF0, offset: 0x26EFC, size: 0x8, addend: 0x0, symName: __ZNSt3__110unique_ptrINS_11__tree_nodeINS_12__value_typeINS_12basic_stringIcNS_11char_traitsIcEENS_9allocatorIcEEEEN19unit_test_framework8TestCaseEEEPvEENS_22__tree_node_destructorINS6_ISD_EEEEEC1B8ue170006ILb1EvEEPSD_NS_16__dependent_typeINS_27__unique_ptr_deleter_sfinaeISG_EEXT_EE20__good_rval_ref_typeE, symObjAddr: 0x1C74, symBinAddr: 0x100007E68, symSize: 0x3C }
  - { offsetInCU: 0x16E3F, offset: 0x26F4B, size: 0x8, addend: 0x0, symName: __ZNSt3__116allocator_traitsINS_9allocatorINS_11__tree_nodeINS_12__value_typeINS_12basic_stringIcNS_11char_traitsIcEENS1_IcEEEEN19unit_test_framework8TestCaseEEEPvEEEEE9constructB8ue170006INS_4pairIKS8_SA_EEJSJ_EvEEvRSE_PT_DpOT0_, symObjAddr: 0x1CB0, symBinAddr: 0x100007EA4, symSize: 0x34 }
  - { offsetInCU: 0x16E98, offset: 0x26FA4, size: 0x8, addend: 0x0, symName: __ZNSt3__122__tree_key_value_typesINS_12__value_typeINS_12basic_stringIcNS_11char_traitsIcEENS_9allocatorIcEEEEN19unit_test_framework8TestCaseEEEE9__get_ptrB8ue170006ERSA_, symObjAddr: 0x1CE4, symBinAddr: 0x100007ED8, symSize: 0x24 }
  - { offsetInCU: 0x16EBC, offset: 0x26FC8, size: 0x8, addend: 0x0, symName: __ZNKSt3__110unique_ptrINS_11__tree_nodeINS_12__value_typeINS_12basic_stringIcNS_11char_traitsIcEENS_9allocatorIcEEEEN19unit_test_framework8TestCaseEEEPvEENS_22__tree_node_destructorINS6_ISD_EEEEEptB8ue170006Ev, symObjAddr: 0x1D08, symBinAddr: 0x100007EFC, symSize: 0x28 }
  - { offsetInCU: 0x16EE0, offset: 0x26FEC, size: 0x8, addend: 0x0, symName: __ZNSt3__110unique_ptrINS_11__tree_nodeINS_12__value_typeINS_12basic_stringIcNS_11char_traitsIcEENS_9allocatorIcEEEEN19unit_test_framework8TestCaseEEEPvEENS_22__tree_node_destructorINS6_ISD_EEEEE11get_deleterB8ue170006Ev, symObjAddr: 0x1D30, symBinAddr: 0x100007F24, symSize: 0x24 }
  - { offsetInCU: 0x16F04, offset: 0x27010, size: 0x8, addend: 0x0, symName: __ZNSt3__117__compressed_pairINS_15__tree_end_nodeIPNS_16__tree_node_baseIPvEEEENS_9allocatorINS_11__tree_nodeINS_12__value_typeINS_12basic_stringIcNS_11char_traitsIcEENS7_IcEEEEN19unit_test_framework8TestCaseEEES3_EEEEE6secondB8ue170006Ev, symObjAddr: 0x1D54, symBinAddr: 0x100007F48, symSize: 0x24 }
  - { offsetInCU: 0x16F28, offset: 0x27034, size: 0x8, addend: 0x0, symName: __ZNSt3__122__compressed_pair_elemINS_9allocatorINS_11__tree_nodeINS_12__value_typeINS_12basic_stringIcNS_11char_traitsIcEENS1_IcEEEEN19unit_test_framework8TestCaseEEEPvEEEELi1ELb1EE5__getB8ue170006Ev, symObjAddr: 0x1D78, symBinAddr: 0x100007F6C, symSize: 0x14 }
  - { offsetInCU: 0x16F4D, offset: 0x27059, size: 0x8, addend: 0x0, symName: __ZNSt3__19allocatorINS_11__tree_nodeINS_12__value_typeINS_12basic_stringIcNS_11char_traitsIcEENS0_IcEEEEN19unit_test_framework8TestCaseEEEPvEEE8allocateB8ue170006Em, symObjAddr: 0x1D8C, symBinAddr: 0x100007F80, symSize: 0x5C }
  - { offsetInCU: 0x16F89, offset: 0x27095, size: 0x8, addend: 0x0, symName: __ZNSt3__116allocator_traitsINS_9allocatorINS_11__tree_nodeINS_12__value_typeINS_12basic_stringIcNS_11char_traitsIcEENS1_IcEEEEN19unit_test_framework8TestCaseEEEPvEEEEE8max_sizeB8ue170006ISE_vEEmRKSE_, symObjAddr: 0x1DE8, symBinAddr: 0x100007FDC, symSize: 0x24 }
  - { offsetInCU: 0x16FB7, offset: 0x270C3, size: 0x8, addend: 0x0, symName: __ZNKSt3__19allocatorINS_11__tree_nodeINS_12__value_typeINS_12basic_stringIcNS_11char_traitsIcEENS0_IcEEEEN19unit_test_framework8TestCaseEEEPvEEE8max_sizeB8ue170006Ev, symObjAddr: 0x1EA0, symBinAddr: 0x100008094, symSize: 0x18 }
  - { offsetInCU: 0x16FDC, offset: 0x270E8, size: 0x8, addend: 0x0, symName: __ZNSt3__122__tree_node_destructorINS_9allocatorINS_11__tree_nodeINS_12__value_typeINS_12basic_stringIcNS_11char_traitsIcEENS1_IcEEEEN19unit_test_framework8TestCaseEEEPvEEEEEC2B8ue170006ERSE_b, symObjAddr: 0x1F28, symBinAddr: 0x10000811C, symSize: 0x38 }
  - { offsetInCU: 0x17023, offset: 0x2712F, size: 0x8, addend: 0x0, symName: __ZNSt3__110unique_ptrINS_11__tree_nodeINS_12__value_typeINS_12basic_stringIcNS_11char_traitsIcEENS_9allocatorIcEEEEN19unit_test_framework8TestCaseEEEPvEENS_22__tree_node_destructorINS6_ISD_EEEEEC2B8ue170006ILb1EvEEPSD_NS_16__dependent_typeINS_27__unique_ptr_deleter_sfinaeISG_EEXT_EE20__good_rval_ref_typeE, symObjAddr: 0x1F60, symBinAddr: 0x100008154, symSize: 0x48 }
  - { offsetInCU: 0x17072, offset: 0x2717E, size: 0x8, addend: 0x0, symName: __ZNSt3__117__compressed_pairIPNS_11__tree_nodeINS_12__value_typeINS_12basic_stringIcNS_11char_traitsIcEENS_9allocatorIcEEEEN19unit_test_framework8TestCaseEEEPvEENS_22__tree_node_destructorINS6_ISD_EEEEEC1B8ue170006IRSE_SH_EEOT_OT0_, symObjAddr: 0x1FA8, symBinAddr: 0x10000819C, symSize: 0x3C }
  - { offsetInCU: 0x170C8, offset: 0x271D4, size: 0x8, addend: 0x0, symName: __ZNSt3__117__compressed_pairIPNS_11__tree_nodeINS_12__value_typeINS_12basic_stringIcNS_11char_traitsIcEENS_9allocatorIcEEEEN19unit_test_framework8TestCaseEEEPvEENS_22__tree_node_destructorINS6_ISD_EEEEEC2B8ue170006IRSE_SH_EEOT_OT0_, symObjAddr: 0x1FE4, symBinAddr: 0x1000081D8, symSize: 0x48 }
  - { offsetInCU: 0x1711E, offset: 0x2722A, size: 0x8, addend: 0x0, symName: __ZNSt3__122__compressed_pair_elemIPNS_11__tree_nodeINS_12__value_typeINS_12basic_stringIcNS_11char_traitsIcEENS_9allocatorIcEEEEN19unit_test_framework8TestCaseEEEPvEELi0ELb0EEC2B8ue170006IRSE_vEEOT_, symObjAddr: 0x202C, symBinAddr: 0x100008220, symSize: 0x24 }
  - { offsetInCU: 0x1715F, offset: 0x2726B, size: 0x8, addend: 0x0, symName: __ZNSt3__122__compressed_pair_elemINS_22__tree_node_destructorINS_9allocatorINS_11__tree_nodeINS_12__value_typeINS_12basic_stringIcNS_11char_traitsIcEENS2_IcEEEEN19unit_test_framework8TestCaseEEEPvEEEEEELi1ELb0EEC2B8ue170006ISG_vEEOT_, symObjAddr: 0x2050, symBinAddr: 0x100008244, symSize: 0x24 }
  - { offsetInCU: 0x171A0, offset: 0x272AC, size: 0x8, addend: 0x0, symName: __ZNSt3__19allocatorINS_11__tree_nodeINS_12__value_typeINS_12basic_stringIcNS_11char_traitsIcEENS0_IcEEEEN19unit_test_framework8TestCaseEEEPvEEE9constructB8ue170006INS_4pairIKS7_S9_EEJSH_EEEvPT_DpOT0_, symObjAddr: 0x2074, symBinAddr: 0x100008268, symSize: 0x30 }
  - { offsetInCU: 0x171F6, offset: 0x27302, size: 0x8, addend: 0x0, symName: __ZNSt3__14pairIKNS_12basic_stringIcNS_11char_traitsIcEENS_9allocatorIcEEEEN19unit_test_framework8TestCaseEEC1B8ue170006EOSA_, symObjAddr: 0x20A4, symBinAddr: 0x100008298, symSize: 0x34 }
  - { offsetInCU: 0x17229, offset: 0x27335, size: 0x8, addend: 0x0, symName: __ZNSt3__14pairIKNS_12basic_stringIcNS_11char_traitsIcEENS_9allocatorIcEEEEN19unit_test_framework8TestCaseEEC2B8ue170006EOSA_, symObjAddr: 0x20D8, symBinAddr: 0x1000082CC, symSize: 0x48 }
  - { offsetInCU: 0x1725C, offset: 0x27368, size: 0x8, addend: 0x0, symName: __ZN19unit_test_framework8TestCaseC1EOS0_, symObjAddr: 0x2120, symBinAddr: 0x100008314, symSize: 0x34 }
  - { offsetInCU: 0x17291, offset: 0x2739D, size: 0x8, addend: 0x0, symName: __ZN19unit_test_framework8TestCaseC2EOS0_, symObjAddr: 0x2154, symBinAddr: 0x100008348, symSize: 0x68 }
  - { offsetInCU: 0x172C6, offset: 0x273D2, size: 0x8, addend: 0x0, symName: __ZNSt3__112basic_stringIcNS_11char_traitsIcEENS_9allocatorIcEEEC1B8ue170006EOS5_, symObjAddr: 0x21BC, symBinAddr: 0x1000083B0, symSize: 0x34 }
  - { offsetInCU: 0x172FD, offset: 0x27409, size: 0x8, addend: 0x0, symName: __ZNSt3__112basic_stringIcNS_11char_traitsIcEENS_9allocatorIcEEEC2B8ue170006EOS5_, symObjAddr: 0x21F0, symBinAddr: 0x1000083E4, symSize: 0x50 }
  - { offsetInCU: 0x17334, offset: 0x27440, size: 0x8, addend: 0x0, symName: __ZNSt3__112__value_typeINS_12basic_stringIcNS_11char_traitsIcEENS_9allocatorIcEEEEN19unit_test_framework8TestCaseEE11__get_valueB8ue170006Ev, symObjAddr: 0x22B8, symBinAddr: 0x100008434, symSize: 0x24 }
  - { offsetInCU: 0x17358, offset: 0x27464, size: 0x8, addend: 0x0, symName: __ZNKSt3__117__compressed_pairIPNS_11__tree_nodeINS_12__value_typeINS_12basic_stringIcNS_11char_traitsIcEENS_9allocatorIcEEEEN19unit_test_framework8TestCaseEEEPvEENS_22__tree_node_destructorINS6_ISD_EEEEE5firstB8ue170006Ev, symObjAddr: 0x2314, symBinAddr: 0x100008490, symSize: 0x24 }
  - { offsetInCU: 0x1737C, offset: 0x27488, size: 0x8, addend: 0x0, symName: __ZNKSt3__122__compressed_pair_elemIPNS_11__tree_nodeINS_12__value_typeINS_12basic_stringIcNS_11char_traitsIcEENS_9allocatorIcEEEEN19unit_test_framework8TestCaseEEEPvEELi0ELb0EE5__getB8ue170006Ev, symObjAddr: 0x2338, symBinAddr: 0x1000084B4, symSize: 0x14 }
  - { offsetInCU: 0x173A1, offset: 0x274AD, size: 0x8, addend: 0x0, symName: __ZNSt3__117__compressed_pairIPNS_11__tree_nodeINS_12__value_typeINS_12basic_stringIcNS_11char_traitsIcEENS_9allocatorIcEEEEN19unit_test_framework8TestCaseEEEPvEENS_22__tree_node_destructorINS6_ISD_EEEEE6secondB8ue170006Ev, symObjAddr: 0x234C, symBinAddr: 0x1000084C8, symSize: 0x28 }
  - { offsetInCU: 0x173C5, offset: 0x274D1, size: 0x8, addend: 0x0, symName: __ZNSt3__122__compressed_pair_elemINS_22__tree_node_destructorINS_9allocatorINS_11__tree_nodeINS_12__value_typeINS_12basic_stringIcNS_11char_traitsIcEENS2_IcEEEEN19unit_test_framework8TestCaseEEEPvEEEEEELi1ELb0EE5__getB8ue170006Ev, symObjAddr: 0x2374, symBinAddr: 0x1000084F0, symSize: 0x14 }
  - { offsetInCU: 0x173EA, offset: 0x274F6, size: 0x8, addend: 0x0, symName: __ZNSt3__16__treeINS_12__value_typeINS_12basic_stringIcNS_11char_traitsIcEENS_9allocatorIcEEEEN19unit_test_framework8TestCaseEEENS_19__map_value_compareIS7_SA_NS_4lessIS7_EELb1EEENS5_ISA_EEE12__begin_nodeB8ue170006Ev, symObjAddr: 0x2388, symBinAddr: 0x100008504, symSize: 0x14 }
  - { offsetInCU: 0x1740F, offset: 0x2751B, size: 0x8, addend: 0x0, symName: __ZNSt3__16__treeINS_12__value_typeINS_12basic_stringIcNS_11char_traitsIcEENS_9allocatorIcEEEEN19unit_test_framework8TestCaseEEENS_19__map_value_compareIS7_SA_NS_4lessIS7_EELb1EEENS5_ISA_EEE4sizeB8ue170006Ev, symObjAddr: 0x26C8, symBinAddr: 0x100008844, symSize: 0x28 }
  - { offsetInCU: 0x17433, offset: 0x2753F, size: 0x8, addend: 0x0, symName: __ZNKSt3__116__tree_node_baseIPvE15__parent_unsafeB8ue170006Ev, symObjAddr: 0x26F0, symBinAddr: 0x10000886C, symSize: 0x18 }
  - { offsetInCU: 0x17458, offset: 0x27564, size: 0x8, addend: 0x0, symName: __ZNSt3__116__tree_node_baseIPvE12__set_parentB8ue170006EPS2_, symObjAddr: 0x28D8, symBinAddr: 0x100008A54, symSize: 0x20 }
  - { offsetInCU: 0x1748C, offset: 0x27598, size: 0x8, addend: 0x0, symName: __ZNSt3__117__compressed_pairImNS_19__map_value_compareINS_12basic_stringIcNS_11char_traitsIcEENS_9allocatorIcEEEENS_12__value_typeIS7_N19unit_test_framework8TestCaseEEENS_4lessIS7_EELb1EEEE5firstB8ue170006Ev, symObjAddr: 0x28F8, symBinAddr: 0x100008A74, symSize: 0x24 }
  - { offsetInCU: 0x174B0, offset: 0x275BC, size: 0x8, addend: 0x0, symName: __ZNSt3__122__compressed_pair_elemImLi0ELb0EE5__getB8ue170006Ev, symObjAddr: 0x291C, symBinAddr: 0x100008A98, symSize: 0x14 }
  - { offsetInCU: 0x174D5, offset: 0x275E1, size: 0x8, addend: 0x0, symName: __ZNSt3__117__compressed_pairIPNS_11__tree_nodeINS_12__value_typeINS_12basic_stringIcNS_11char_traitsIcEENS_9allocatorIcEEEEN19unit_test_framework8TestCaseEEEPvEENS_22__tree_node_destructorINS6_ISD_EEEEE5firstB8ue170006Ev, symObjAddr: 0x2930, symBinAddr: 0x100008AAC, symSize: 0x24 }
  - { offsetInCU: 0x174F9, offset: 0x27605, size: 0x8, addend: 0x0, symName: __ZNSt3__122__compressed_pair_elemIPNS_11__tree_nodeINS_12__value_typeINS_12basic_stringIcNS_11char_traitsIcEENS_9allocatorIcEEEEN19unit_test_framework8TestCaseEEEPvEELi0ELb0EE5__getB8ue170006Ev, symObjAddr: 0x2954, symBinAddr: 0x100008AD0, symSize: 0x14 }
  - { offsetInCU: 0x1751E, offset: 0x2762A, size: 0x8, addend: 0x0, symName: __ZNSt3__110unique_ptrINS_11__tree_nodeINS_12__value_typeINS_12basic_stringIcNS_11char_traitsIcEENS_9allocatorIcEEEEN19unit_test_framework8TestCaseEEEPvEENS_22__tree_node_destructorINS6_ISD_EEEEED2B8ue170006Ev, symObjAddr: 0x2968, symBinAddr: 0x100008AE4, symSize: 0x30 }
  - { offsetInCU: 0x17546, offset: 0x27652, size: 0x8, addend: 0x0, symName: __ZNSt3__110unique_ptrINS_11__tree_nodeINS_12__value_typeINS_12basic_stringIcNS_11char_traitsIcEENS_9allocatorIcEEEEN19unit_test_framework8TestCaseEEEPvEENS_22__tree_node_destructorINS6_ISD_EEEEE5resetB8ue170006EPSD_, symObjAddr: 0x2998, symBinAddr: 0x100008B14, symSize: 0x78 }
  - { offsetInCU: 0x17588, offset: 0x27694, size: 0x8, addend: 0x0, symName: __ZNSt3__122__tree_node_destructorINS_9allocatorINS_11__tree_nodeINS_12__value_typeINS_12basic_stringIcNS_11char_traitsIcEENS1_IcEEEEN19unit_test_framework8TestCaseEEEPvEEEEEclB8ue170006EPSD_, symObjAddr: 0x2A10, symBinAddr: 0x100008B8C, symSize: 0x98 }
  - { offsetInCU: 0x175BB, offset: 0x276C7, size: 0x8, addend: 0x0, symName: __ZNSt3__116allocator_traitsINS_9allocatorINS_11__tree_nodeINS_12__value_typeINS_12basic_stringIcNS_11char_traitsIcEENS1_IcEEEEN19unit_test_framework8TestCaseEEEPvEEEEE7destroyB8ue170006INS_4pairIKS8_SA_EEvvEEvRSE_PT_, symObjAddr: 0x2AA8, symBinAddr: 0x100008C24, symSize: 0x28 }
  - { offsetInCU: 0x175F6, offset: 0x27702, size: 0x8, addend: 0x0, symName: __ZNSt3__116allocator_traitsINS_9allocatorINS_11__tree_nodeINS_12__value_typeINS_12basic_stringIcNS_11char_traitsIcEENS1_IcEEEEN19unit_test_framework8TestCaseEEEPvEEEEE10deallocateB8ue170006ERSE_PSD_m, symObjAddr: 0x2AD0, symBinAddr: 0x100008C4C, symSize: 0x34 }
  - { offsetInCU: 0x17638, offset: 0x27744, size: 0x8, addend: 0x0, symName: __ZNSt3__19allocatorINS_11__tree_nodeINS_12__value_typeINS_12basic_stringIcNS_11char_traitsIcEENS0_IcEEEEN19unit_test_framework8TestCaseEEEPvEEE10deallocateB8ue170006EPSC_m, symObjAddr: 0x2B04, symBinAddr: 0x100008C80, symSize: 0x44 }
  - { offsetInCU: 0x17678, offset: 0x27784, size: 0x8, addend: 0x0, symName: __ZNSt3__115__tree_iteratorINS_12__value_typeINS_12basic_stringIcNS_11char_traitsIcEENS_9allocatorIcEEEEN19unit_test_framework8TestCaseEEEPNS_11__tree_nodeISA_PvEElEC2B8ue170006ESE_, symObjAddr: 0x2C50, symBinAddr: 0x100008DCC, symSize: 0x20 }
  - { offsetInCU: 0x176B0, offset: 0x277BC, size: 0x8, addend: 0x0, symName: __ZNSt3__14pairINS_15__tree_iteratorINS_12__value_typeINS_12basic_stringIcNS_11char_traitsIcEENS_9allocatorIcEEEEN19unit_test_framework8TestCaseEEEPNS_11__tree_nodeISB_PvEElEEbEC2B8ue170006ISG_RbLSD_0EEEOT_OT0_, symObjAddr: 0x2C70, symBinAddr: 0x100008DEC, symSize: 0x38 }
  - { offsetInCU: 0x1770E, offset: 0x2781A, size: 0x8, addend: 0x0, symName: __ZNSt3__14pairINS_14__map_iteratorINS_15__tree_iteratorINS_12__value_typeINS_12basic_stringIcNS_11char_traitsIcEENS_9allocatorIcEEEEN19unit_test_framework8TestCaseEEEPNS_11__tree_nodeISC_PvEElEEEEbEC2B8ue170006ISH_bLSE_0EEEONS0_IT_T0_EE, symObjAddr: 0x2CA8, symBinAddr: 0x100008E24, symSize: 0x50 }
  - { offsetInCU: 0x1775E, offset: 0x2786A, size: 0x8, addend: 0x0, symName: __ZNSt3__114__map_iteratorINS_15__tree_iteratorINS_12__value_typeINS_12basic_stringIcNS_11char_traitsIcEENS_9allocatorIcEEEEN19unit_test_framework8TestCaseEEEPNS_11__tree_nodeISB_PvEElEEEC1B8ue170006ESG_, symObjAddr: 0x2CF8, symBinAddr: 0x100008E74, symSize: 0x34 }
  - { offsetInCU: 0x17795, offset: 0x278A1, size: 0x8, addend: 0x0, symName: __ZNSt3__114__map_iteratorINS_15__tree_iteratorINS_12__value_typeINS_12basic_stringIcNS_11char_traitsIcEENS_9allocatorIcEEEEN19unit_test_framework8TestCaseEEEPNS_11__tree_nodeISB_PvEElEEEC2B8ue170006ESG_, symObjAddr: 0x2D2C, symBinAddr: 0x100008EA8, symSize: 0x20 }
  - { offsetInCU: 0x177CD, offset: 0x278D9, size: 0x8, addend: 0x0, symName: __ZN19unit_test_framework8TestCaseC2ERKNSt3__112basic_stringIcNS1_11char_traitsIcEENS1_9allocatorIcEEEEPFvvE, symObjAddr: 0x2D4C, symBinAddr: 0x100008EC8, symSize: 0x58 }
  - { offsetInCU: 0x17818, offset: 0x27924, size: 0x8, addend: 0x0, symName: __ZNSt3__14pairIKNS_12basic_stringIcNS_11char_traitsIcEENS_9allocatorIcEEEEN19unit_test_framework8TestCaseEEC2B8ue170006IRS7_S9_LPv0EEEOT_OT0_, symObjAddr: 0x2F0C, symBinAddr: 0x100008F20, symSize: 0x48 }
  - { offsetInCU: 0x17875, offset: 0x27981, size: 0x8, addend: 0x0, symName: __ZNSt3__14pairIKNS_12basic_stringIcNS_11char_traitsIcEENS_9allocatorIcEEEEN19unit_test_framework8TestCaseEED2Ev, symObjAddr: 0x2F54, symBinAddr: 0x100008F68, symSize: 0x38 }
  - { offsetInCU: 0x1789F, offset: 0x279AB, size: 0x8, addend: 0x0, symName: __ZN19unit_test_framework8TestCaseD2Ev, symObjAddr: 0x2F8C, symBinAddr: 0x100008FA0, symSize: 0x44 }
  - { offsetInCU: 0x178DA, offset: 0x279E6, size: 0x8, addend: 0x0, symName: __ZN19unit_test_framework10Assertions12assert_equalIR4CardS2_EEvOT_OT0_iPKc, symObjAddr: 0x2FD0, symBinAddr: 0x100008FE4, symSize: 0x174 }
  - { offsetInCU: 0x17952, offset: 0x27A5E, size: 0x8, addend: 0x0, symName: __ZN19unit_test_framework10Assertions11safe_equalsIR4CardS2_vE6equalsES3_RKS2_, symObjAddr: 0x3144, symBinAddr: 0x100009158, symSize: 0x30 }
  - { offsetInCU: 0x179D5, offset: 0x27AE1, size: 0x8, addend: 0x0, symName: __ZNSt3__119basic_ostringstreamIcNS_11char_traitsIcEENS_9allocatorIcEEEC1B8ue170006Ev, symObjAddr: 0x3174, symBinAddr: 0x100009188, symSize: 0xEC }
  - { offsetInCU: 0x179FD, offset: 0x27B09, size: 0x8, addend: 0x0, symName: __ZN19unit_test_framework10Diagnostic5printI4CardEERNSt3__113basic_ostreamIcNS3_11char_traitsIcEEEES8_RKT_, symObjAddr: 0x3260, symBinAddr: 0x100009274, symSize: 0x34 }
  - { offsetInCU: 0x17A37, offset: 0x27B43, size: 0x8, addend: 0x0, symName: __ZNKSt3__119basic_ostringstreamIcNS_11char_traitsIcEENS_9allocatorIcEEE3strB8ue170006Ev, symObjAddr: 0x32DC, symBinAddr: 0x1000092A8, symSize: 0x30 }
  - { offsetInCU: 0x17A6A, offset: 0x27B76, size: 0x8, addend: 0x0, symName: __ZN19unit_test_framework11TestFailureC1ENSt3__112basic_stringIcNS1_11char_traitsIcEENS1_9allocatorIcEEEEiPKc, symObjAddr: 0x330C, symBinAddr: 0x1000092D8, symSize: 0x44 }
  - { offsetInCU: 0x17ABD, offset: 0x27BC9, size: 0x8, addend: 0x0, symName: __ZN19unit_test_framework11TestFailureD1Ev, symObjAddr: 0x3350, symBinAddr: 0x10000931C, symSize: 0x2C }
  - { offsetInCU: 0x17AEC, offset: 0x27BF8, size: 0x8, addend: 0x0, symName: __ZNSt3__119basic_ostringstreamIcNS_11char_traitsIcEENS_9allocatorIcEEED1Ev, symObjAddr: 0x337C, symBinAddr: 0x100009348, symSize: 0x40 }
  - { offsetInCU: 0x17B18, offset: 0x27C24, size: 0x8, addend: 0x0, symName: __ZN19unit_test_framework10Assertions18safe_equals_helperI4CardS2_EEbRKT_RKT0_, symObjAddr: 0x33BC, symBinAddr: 0x100009388, symSize: 0x30 }
  - { offsetInCU: 0x17B5D, offset: 0x27C69, size: 0x8, addend: 0x0, symName: __ZNSt3__19basic_iosIcNS_11char_traitsIcEEEC2B8ue170006Ev, symObjAddr: 0x33EC, symBinAddr: 0x1000093B8, symSize: 0x44 }
  - { offsetInCU: 0x17B85, offset: 0x27C91, size: 0x8, addend: 0x0, symName: __ZNSt3__113basic_ostreamIcNS_11char_traitsIcEEEC2B8ue170006EPNS_15basic_streambufIcS2_EE, symObjAddr: 0x3430, symBinAddr: 0x1000093FC, symSize: 0x60 }
  - { offsetInCU: 0x17BC7, offset: 0x27CD3, size: 0x8, addend: 0x0, symName: __ZNSt3__115basic_stringbufIcNS_11char_traitsIcEENS_9allocatorIcEEEC1B8ue170006Ej, symObjAddr: 0x3490, symBinAddr: 0x10000945C, symSize: 0x34 }
  - { offsetInCU: 0x17BFE, offset: 0x27D0A, size: 0x8, addend: 0x0, symName: __ZNSt3__18ios_baseC2B8ue170006Ev, symObjAddr: 0x34C4, symBinAddr: 0x100009490, symSize: 0x24 }
  - { offsetInCU: 0x17C27, offset: 0x27D33, size: 0x8, addend: 0x0, symName: __ZNSt3__19basic_iosIcNS_11char_traitsIcEEE4initB8ue170006EPNS_15basic_streambufIcS2_EE, symObjAddr: 0x34E8, symBinAddr: 0x1000094B4, symSize: 0x44 }
  - { offsetInCU: 0x17C5D, offset: 0x27D69, size: 0x8, addend: 0x0, symName: __ZNSt3__115basic_stringbufIcNS_11char_traitsIcEENS_9allocatorIcEEEC2B8ue170006Ej, symObjAddr: 0x3534, symBinAddr: 0x1000094F8, symSize: 0x60 }
  - { offsetInCU: 0x17C94, offset: 0x27DA0, size: 0x8, addend: 0x0, symName: __ZN19unit_test_framework10Diagnostic12print_helperI4CardEERDTlsfp_fp0_ERNSt3__113basic_ostreamIcNS5_11char_traitsIcEEEERKT_ii, symObjAddr: 0x3594, symBinAddr: 0x100009558, symSize: 0x34 }
  - { offsetInCU: 0x17D02, offset: 0x27E0E, size: 0x8, addend: 0x0, symName: __ZN19unit_test_framework11TestFailureC2ENSt3__112basic_stringIcNS1_11char_traitsIcEENS1_9allocatorIcEEEEiPKc, symObjAddr: 0x3F38, symBinAddr: 0x10000958C, symSize: 0x4C }
  - { offsetInCU: 0x17D55, offset: 0x27E61, size: 0x8, addend: 0x0, symName: __ZN19unit_test_framework11TestFailureD2Ev, symObjAddr: 0x3F84, symBinAddr: 0x1000095D8, symSize: 0x2C }
  - { offsetInCU: 0x17D7F, offset: 0x27E8B, size: 0x8, addend: 0x0, symName: __ZNSt3__119basic_ostringstreamIcNS_11char_traitsIcEENS_9allocatorIcEEED2Ev, symObjAddr: 0x3FB0, symBinAddr: 0x100009604, symSize: 0x64 }
  - { offsetInCU: 0x17DB7, offset: 0x27EC3, size: 0x8, addend: 0x0, symName: __ZTv0_n24_NSt3__119basic_ostringstreamIcNS_11char_traitsIcEENS_9allocatorIcEEED1Ev, symObjAddr: 0x4014, symBinAddr: 0x100009668, symSize: 0x28 }
  - { offsetInCU: 0x17DD3, offset: 0x27EDF, size: 0x8, addend: 0x0, symName: __ZNSt3__115basic_stringbufIcNS_11char_traitsIcEENS_9allocatorIcEEED1Ev, symObjAddr: 0x403C, symBinAddr: 0x100009690, symSize: 0x2C }
  - { offsetInCU: 0x17DFF, offset: 0x27F0B, size: 0x8, addend: 0x0, symName: __ZNSt3__115basic_stringbufIcNS_11char_traitsIcEENS_9allocatorIcEEED2Ev, symObjAddr: 0x4068, symBinAddr: 0x1000096BC, symSize: 0x48 }
  - { offsetInCU: 0x17F2D, offset: 0x28039, size: 0x8, addend: 0x0, symName: __ZNSt3__114basic_ifstreamIcNS_11char_traitsIcEEEC1ERKNS_12basic_stringIcS2_NS_9allocatorIcEEEEj, symObjAddr: 0x40B0, symBinAddr: 0x100009704, symSize: 0x16C }
  - { offsetInCU: 0x17F76, offset: 0x28082, size: 0x8, addend: 0x0, symName: __ZNKSt3__114basic_ifstreamIcNS_11char_traitsIcEEE7is_openEv, symObjAddr: 0x421C, symBinAddr: 0x100009870, symSize: 0x2C }
  - { offsetInCU: 0x17FA2, offset: 0x280AE, size: 0x8, addend: 0x0, symName: __ZNSt3__114basic_ifstreamIcNS_11char_traitsIcEEED1Ev, symObjAddr: 0x4248, symBinAddr: 0x10000989C, symSize: 0x40 }
  - { offsetInCU: 0x17FCE, offset: 0x280DA, size: 0x8, addend: 0x0, symName: __ZNSt3__113basic_istreamIcNS_11char_traitsIcEEEC2B8ue170006EPNS_15basic_streambufIcS2_EE, symObjAddr: 0x4288, symBinAddr: 0x1000098DC, symSize: 0x64 }
  - { offsetInCU: 0x18010, offset: 0x2811C, size: 0x8, addend: 0x0, symName: __ZNSt3__113basic_filebufIcNS_11char_traitsIcEEE4openERKNS_12basic_stringIcS2_NS_9allocatorIcEEEEj, symObjAddr: 0x42EC, symBinAddr: 0x100009940, symSize: 0x44 }
  - { offsetInCU: 0x18053, offset: 0x2815F, size: 0x8, addend: 0x0, symName: __ZNKSt3__112basic_stringIcNS_11char_traitsIcEENS_9allocatorIcEEE5c_strB8ue170006Ev, symObjAddr: 0x4330, symBinAddr: 0x100009984, symSize: 0x24 }
  - { offsetInCU: 0x18077, offset: 0x28183, size: 0x8, addend: 0x0, symName: __ZNKSt3__113basic_filebufIcNS_11char_traitsIcEEE7is_openEv, symObjAddr: 0x4354, symBinAddr: 0x1000099A8, symSize: 0x24 }
  - { offsetInCU: 0x1809E, offset: 0x281AA, size: 0x8, addend: 0x0, symName: __ZNSt3__114basic_ifstreamIcNS_11char_traitsIcEEED2Ev, symObjAddr: 0x4378, symBinAddr: 0x1000099CC, symSize: 0x64 }
  - { offsetInCU: 0x180D6, offset: 0x281E2, size: 0x8, addend: 0x0, symName: __ZTv0_n24_NSt3__114basic_ifstreamIcNS_11char_traitsIcEEED1Ev, symObjAddr: 0x43DC, symBinAddr: 0x100009A30, symSize: 0x28 }
  - { offsetInCU: 0x180ED, offset: 0x281F9, size: 0x8, addend: 0x0, symName: __ZN19unit_test_framework10Assertions12assert_falseEbiPKc, symObjAddr: 0x4404, symBinAddr: 0x100009A58, symSize: 0x148 }
  - { offsetInCU: 0x1813F, offset: 0x2824B, size: 0x8, addend: 0x0, symName: __ZN19unit_test_framework10Assertions11assert_trueEbiPKc, symObjAddr: 0x454C, symBinAddr: 0x100009BA0, symSize: 0x148 }
  - { offsetInCU: 0x18191, offset: 0x2829D, size: 0x8, addend: 0x0, symName: __ZN19unit_test_framework9TestSuiteC1Ev, symObjAddr: 0x4694, symBinAddr: 0x100009CE8, symSize: 0x2C }
  - { offsetInCU: 0x181B9, offset: 0x282C5, size: 0x8, addend: 0x0, symName: __ZN19unit_test_framework9TestSuiteC2Ev, symObjAddr: 0x46C0, symBinAddr: 0x100009D14, symSize: 0x68 }
  - { offsetInCU: 0x18224, offset: 0x28330, size: 0x8, addend: 0x0, symName: __ZNSt3__13mapINS_12basic_stringIcNS_11char_traitsIcEENS_9allocatorIcEEEEN19unit_test_framework8TestCaseENS_4lessIS6_EENS4_INS_4pairIKS6_S8_EEEEEC1B8ue170006Ev, symObjAddr: 0x4728, symBinAddr: 0x100009D7C, symSize: 0x2C }
  - { offsetInCU: 0x18256, offset: 0x28362, size: 0x8, addend: 0x0, symName: __ZZN19unit_test_framework9TestSuiteC1EvENKUlvE_cvPFvvEEv, symObjAddr: 0x4754, symBinAddr: 0x100009DA8, symSize: 0x18 }
  - { offsetInCU: 0x18282, offset: 0x2838E, size: 0x8, addend: 0x0, symName: __ZNSt3__13mapINS_12basic_stringIcNS_11char_traitsIcEENS_9allocatorIcEEEEN19unit_test_framework8TestCaseENS_4lessIS6_EENS4_INS_4pairIKS6_S8_EEEEED1B8ue170006Ev, symObjAddr: 0x476C, symBinAddr: 0x100009DC0, symSize: 0x2C }
  - { offsetInCU: 0x182AA, offset: 0x283B6, size: 0x8, addend: 0x0, symName: __ZNSt3__13mapINS_12basic_stringIcNS_11char_traitsIcEENS_9allocatorIcEEEEN19unit_test_framework8TestCaseENS_4lessIS6_EENS4_INS_4pairIKS6_S8_EEEEEC2B8ue170006Ev, symObjAddr: 0x4798, symBinAddr: 0x100009DEC, symSize: 0x40 }
  - { offsetInCU: 0x182D2, offset: 0x283DE, size: 0x8, addend: 0x0, symName: __ZNSt3__119__map_value_compareINS_12basic_stringIcNS_11char_traitsIcEENS_9allocatorIcEEEENS_12__value_typeIS6_N19unit_test_framework8TestCaseEEENS_4lessIS6_EELb1EEC1B8ue170006ESC_, symObjAddr: 0x47D8, symBinAddr: 0x100009E2C, symSize: 0x2C }
  - { offsetInCU: 0x18309, offset: 0x28415, size: 0x8, addend: 0x0, symName: __ZNSt3__16__treeINS_12__value_typeINS_12basic_stringIcNS_11char_traitsIcEENS_9allocatorIcEEEEN19unit_test_framework8TestCaseEEENS_19__map_value_compareIS7_SA_NS_4lessIS7_EELb1EEENS5_ISA_EEEC1ERKSE_, symObjAddr: 0x4804, symBinAddr: 0x100009E58, symSize: 0x34 }
  - { offsetInCU: 0x18343, offset: 0x2844F, size: 0x8, addend: 0x0, symName: __ZNSt3__119__map_value_compareINS_12basic_stringIcNS_11char_traitsIcEENS_9allocatorIcEEEENS_12__value_typeIS6_N19unit_test_framework8TestCaseEEENS_4lessIS6_EELb1EEC2B8ue170006ESC_, symObjAddr: 0x4838, symBinAddr: 0x100009E8C, symSize: 0x14 }
  - { offsetInCU: 0x1837B, offset: 0x28487, size: 0x8, addend: 0x0, symName: __ZNSt3__16__treeINS_12__value_typeINS_12basic_stringIcNS_11char_traitsIcEENS_9allocatorIcEEEEN19unit_test_framework8TestCaseEEENS_19__map_value_compareIS7_SA_NS_4lessIS7_EELb1EEENS5_ISA_EEEC2ERKSE_, symObjAddr: 0x484C, symBinAddr: 0x100009EA0, symSize: 0x7C }
  - { offsetInCU: 0x183B5, offset: 0x284C1, size: 0x8, addend: 0x0, symName: __ZNSt3__117__compressed_pairINS_15__tree_end_nodeIPNS_16__tree_node_baseIPvEEEENS_9allocatorINS_11__tree_nodeINS_12__value_typeINS_12basic_stringIcNS_11char_traitsIcEENS7_IcEEEEN19unit_test_framework8TestCaseEEES3_EEEEEC1B8ue170006ILb1EvEEv, symObjAddr: 0x48C8, symBinAddr: 0x100009F1C, symSize: 0x2C }
  - { offsetInCU: 0x183ED, offset: 0x284F9, size: 0x8, addend: 0x0, symName: __ZNSt3__117__compressed_pairImNS_19__map_value_compareINS_12basic_stringIcNS_11char_traitsIcEENS_9allocatorIcEEEENS_12__value_typeIS7_N19unit_test_framework8TestCaseEEENS_4lessIS7_EELb1EEEEC1B8ue170006IiRKSE_EEOT_OT0_, symObjAddr: 0x48F4, symBinAddr: 0x100009F48, symSize: 0x3C }
  - { offsetInCU: 0x18443, offset: 0x2854F, size: 0x8, addend: 0x0, symName: __ZNSt3__117__compressed_pairINS_15__tree_end_nodeIPNS_16__tree_node_baseIPvEEEENS_9allocatorINS_11__tree_nodeINS_12__value_typeINS_12basic_stringIcNS_11char_traitsIcEENS7_IcEEEEN19unit_test_framework8TestCaseEEES3_EEEEEC2B8ue170006ILb1EvEEv, symObjAddr: 0x4930, symBinAddr: 0x100009F84, symSize: 0x34 }
  - { offsetInCU: 0x18476, offset: 0x28582, size: 0x8, addend: 0x0, symName: __ZNSt3__122__compressed_pair_elemINS_15__tree_end_nodeIPNS_16__tree_node_baseIPvEEEELi0ELb0EEC2B8ue170006ENS_16__value_init_tagE, symObjAddr: 0x4964, symBinAddr: 0x100009FB8, symSize: 0x2C }
  - { offsetInCU: 0x184A9, offset: 0x285B5, size: 0x8, addend: 0x0, symName: __ZNSt3__122__compressed_pair_elemINS_9allocatorINS_11__tree_nodeINS_12__value_typeINS_12basic_stringIcNS_11char_traitsIcEENS1_IcEEEEN19unit_test_framework8TestCaseEEEPvEEEELi1ELb1EEC2B8ue170006ENS_16__value_init_tagE, symObjAddr: 0x4990, symBinAddr: 0x100009FE4, symSize: 0x2C }
  - { offsetInCU: 0x184DC, offset: 0x285E8, size: 0x8, addend: 0x0, symName: __ZNSt3__115__tree_end_nodeIPNS_16__tree_node_baseIPvEEEC1B8ue170006Ev, symObjAddr: 0x49BC, symBinAddr: 0x10000A010, symSize: 0x2C }
  - { offsetInCU: 0x18504, offset: 0x28610, size: 0x8, addend: 0x0, symName: __ZNSt3__115__tree_end_nodeIPNS_16__tree_node_baseIPvEEEC2B8ue170006Ev, symObjAddr: 0x49E8, symBinAddr: 0x10000A03C, symSize: 0x18 }
  - { offsetInCU: 0x1852D, offset: 0x28639, size: 0x8, addend: 0x0, symName: __ZNSt3__19allocatorINS_11__tree_nodeINS_12__value_typeINS_12basic_stringIcNS_11char_traitsIcEENS0_IcEEEEN19unit_test_framework8TestCaseEEEPvEEEC2B8ue170006Ev, symObjAddr: 0x4A00, symBinAddr: 0x10000A054, symSize: 0x2C }
  - { offsetInCU: 0x18555, offset: 0x28661, size: 0x8, addend: 0x0, symName: __ZNSt3__116__non_trivial_ifILb1ENS_9allocatorINS_11__tree_nodeINS_12__value_typeINS_12basic_stringIcNS_11char_traitsIcEENS1_IcEEEEN19unit_test_framework8TestCaseEEEPvEEEEEC2B8ue170006Ev, symObjAddr: 0x4A2C, symBinAddr: 0x10000A080, symSize: 0x14 }
  - { offsetInCU: 0x1857E, offset: 0x2868A, size: 0x8, addend: 0x0, symName: __ZNSt3__117__compressed_pairImNS_19__map_value_compareINS_12basic_stringIcNS_11char_traitsIcEENS_9allocatorIcEEEENS_12__value_typeIS7_N19unit_test_framework8TestCaseEEENS_4lessIS7_EELb1EEEEC2B8ue170006IiRKSE_EEOT_OT0_, symObjAddr: 0x4A40, symBinAddr: 0x10000A094, symSize: 0x44 }
  - { offsetInCU: 0x185D4, offset: 0x286E0, size: 0x8, addend: 0x0, symName: __ZNSt3__122__compressed_pair_elemImLi0ELb0EEC2B8ue170006IivEEOT_, symObjAddr: 0x4A84, symBinAddr: 0x10000A0D8, symSize: 0x24 }
  - { offsetInCU: 0x18615, offset: 0x28721, size: 0x8, addend: 0x0, symName: __ZNSt3__122__compressed_pair_elemINS_19__map_value_compareINS_12basic_stringIcNS_11char_traitsIcEENS_9allocatorIcEEEENS_12__value_typeIS7_N19unit_test_framework8TestCaseEEENS_4lessIS7_EELb1EEELi1ELb1EEC2B8ue170006IRKSE_vEEOT_, symObjAddr: 0x4AA8, symBinAddr: 0x10000A0FC, symSize: 0x18 }
  - { offsetInCU: 0x18656, offset: 0x28762, size: 0x8, addend: 0x0, symName: __ZZN19unit_test_framework9TestSuiteC1EvENUlvE_8__invokeEv, symObjAddr: 0x4AC0, symBinAddr: 0x10000A114, symSize: 0x20 }
  - { offsetInCU: 0x18671, offset: 0x2877D, size: 0x8, addend: 0x0, symName: __ZZN19unit_test_framework9TestSuiteC1EvENKUlvE_clEv, symObjAddr: 0x4AE0, symBinAddr: 0x10000A134, symSize: 0x50 }
  - { offsetInCU: 0x18699, offset: 0x287A5, size: 0x8, addend: 0x0, symName: __ZNSt3__113basic_ostreamIcNS_11char_traitsIcEEElsB8ue170006EPFRS3_S4_E, symObjAddr: 0x4B30, symBinAddr: 0x10000A184, symSize: 0x2C }
  - { offsetInCU: 0x186CB, offset: 0x287D7, size: 0x8, addend: 0x0, symName: __ZNSt3__13mapINS_12basic_stringIcNS_11char_traitsIcEENS_9allocatorIcEEEEN19unit_test_framework8TestCaseENS_4lessIS6_EENS4_INS_4pairIKS6_S8_EEEEED2B8ue170006Ev, symObjAddr: 0x4BB4, symBinAddr: 0x10000A208, symSize: 0x2C }
  - { offsetInCU: 0x186F3, offset: 0x287FF, size: 0x8, addend: 0x0, symName: __ZNSt3__16__treeINS_12__value_typeINS_12basic_stringIcNS_11char_traitsIcEENS_9allocatorIcEEEEN19unit_test_framework8TestCaseEEENS_19__map_value_compareIS7_SA_NS_4lessIS7_EELb1EEENS5_ISA_EEED1Ev, symObjAddr: 0x4BE0, symBinAddr: 0x10000A234, symSize: 0x2C }
  - { offsetInCU: 0x1871E, offset: 0x2882A, size: 0x8, addend: 0x0, symName: __ZNSt3__16__treeINS_12__value_typeINS_12basic_stringIcNS_11char_traitsIcEENS_9allocatorIcEEEEN19unit_test_framework8TestCaseEEENS_19__map_value_compareIS7_SA_NS_4lessIS7_EELb1EEENS5_ISA_EEED2Ev, symObjAddr: 0x4C0C, symBinAddr: 0x10000A260, symSize: 0x38 }
  - { offsetInCU: 0x18749, offset: 0x28855, size: 0x8, addend: 0x0, symName: __ZNSt3__16__treeINS_12__value_typeINS_12basic_stringIcNS_11char_traitsIcEENS_9allocatorIcEEEEN19unit_test_framework8TestCaseEEENS_19__map_value_compareIS7_SA_NS_4lessIS7_EELb1EEENS5_ISA_EEE7destroyEPNS_11__tree_nodeISA_PvEE, symObjAddr: 0x4C44, symBinAddr: 0x10000A298, symSize: 0xA8 }
  - { offsetInCU: 0x18799, offset: 0x288A5, size: 0x8, addend: 0x0, symName: __ZN19unit_test_framework11SetCompleteC1ERb, symObjAddr: 0x4CEC, symBinAddr: 0x10000A340, symSize: 0x34 }
  - { offsetInCU: 0x187CF, offset: 0x288DB, size: 0x8, addend: 0x0, symName: __ZNSt3__16vectorINS_12basic_stringIcNS_11char_traitsIcEENS_9allocatorIcEEEENS4_IS6_EEEC1B8ue170006Ev, symObjAddr: 0x4D20, symBinAddr: 0x10000A374, symSize: 0x2C }
  - { offsetInCU: 0x187F7, offset: 0x28903, size: 0x8, addend: 0x0, symName: __ZN19unit_test_framework9TestSuite21get_test_names_to_runEiPPc, symObjAddr: 0x4D4C, symBinAddr: 0x10000A3A0, symSize: 0x630 }
  - { offsetInCU: 0x18887, offset: 0x28993, size: 0x8, addend: 0x0, symName: __ZNSt3__16vectorINS_12basic_stringIcNS_11char_traitsIcEENS_9allocatorIcEEEENS4_IS6_EEEaSB8ue170006EOS8_, symObjAddr: 0x537C, symBinAddr: 0x10000A9D0, symSize: 0x34 }
  - { offsetInCU: 0x188BD, offset: 0x289C9, size: 0x8, addend: 0x0, symName: __ZNSt3__16vectorINS_12basic_stringIcNS_11char_traitsIcEENS_9allocatorIcEEEENS4_IS6_EEED1B8ue170006Ev, symObjAddr: 0x53B0, symBinAddr: 0x10000AA04, symSize: 0x2C }
  - { offsetInCU: 0x188E5, offset: 0x289F1, size: 0x8, addend: 0x0, symName: __ZNSt3__16vectorINS_12basic_stringIcNS_11char_traitsIcEENS_9allocatorIcEEEENS4_IS6_EEE5beginB8ue170006Ev, symObjAddr: 0x53DC, symBinAddr: 0x10000AA30, symSize: 0x30 }
  - { offsetInCU: 0x1890C, offset: 0x28A18, size: 0x8, addend: 0x0, symName: __ZNSt3__16vectorINS_12basic_stringIcNS_11char_traitsIcEENS_9allocatorIcEEEENS4_IS6_EEE3endB8ue170006Ev, symObjAddr: 0x540C, symBinAddr: 0x10000AA60, symSize: 0x30 }
  - { offsetInCU: 0x18933, offset: 0x28A3F, size: 0x8, addend: 0x0, symName: __ZNKSt3__111__wrap_iterIPNS_12basic_stringIcNS_11char_traitsIcEENS_9allocatorIcEEEEEdeB8ue170006Ev, symObjAddr: 0x5470, symBinAddr: 0x10000AAC4, symSize: 0x18 }
  - { offsetInCU: 0x18958, offset: 0x28A64, size: 0x8, addend: 0x0, symName: __ZNSt3__13mapINS_12basic_stringIcNS_11char_traitsIcEENS_9allocatorIcEEEEN19unit_test_framework8TestCaseENS_4lessIS6_EENS4_INS_4pairIKS6_S8_EEEEE4findB8ue170006ERSC_, symObjAddr: 0x54B8, symBinAddr: 0x10000AB0C, symSize: 0x40 }
  - { offsetInCU: 0x1898B, offset: 0x28A97, size: 0x8, addend: 0x0, symName: __ZNSt3__111__wrap_iterIPNS_12basic_stringIcNS_11char_traitsIcEENS_9allocatorIcEEEEEppB8ue170006Ev, symObjAddr: 0x5564, symBinAddr: 0x10000ABB8, symSize: 0x20 }
  - { offsetInCU: 0x189B0, offset: 0x28ABC, size: 0x8, addend: 0x0, symName: __ZNSt3__13mapINS_12basic_stringIcNS_11char_traitsIcEENS_9allocatorIcEEEEN19unit_test_framework8TestCaseENS_4lessIS6_EENS4_INS_4pairIKS6_S8_EEEEE2atERSC_, symObjAddr: 0x5584, symBinAddr: 0x10000ABD8, symSize: 0x6C }
  - { offsetInCU: 0x18A04, offset: 0x28B10, size: 0x8, addend: 0x0, symName: __ZN19unit_test_framework8TestCase3runEb, symObjAddr: 0x55F0, symBinAddr: 0x10000AC44, symSize: 0x364 }
  - { offsetInCU: 0x18A6C, offset: 0x28B78, size: 0x8, addend: 0x0, symName: __ZN19unit_test_framework8TestCase5printEb, symObjAddr: 0x5954, symBinAddr: 0x10000AFA8, symSize: 0x170 }
  - { offsetInCU: 0x18A9F, offset: 0x28BAB, size: 0x8, addend: 0x0, symName: __ZNSt3__13mapINS_12basic_stringIcNS_11char_traitsIcEENS_9allocatorIcEEEEN19unit_test_framework8TestCaseENS_4lessIS6_EENS4_INS_4pairIKS6_S8_EEEEE5beginB8ue170006Ev, symObjAddr: 0x5B88, symBinAddr: 0x10000B1DC, symSize: 0x38 }
  - { offsetInCU: 0x18AC3, offset: 0x28BCF, size: 0x8, addend: 0x0, symName: __ZNSt3__13mapINS_12basic_stringIcNS_11char_traitsIcEENS_9allocatorIcEEEEN19unit_test_framework8TestCaseENS_4lessIS6_EENS4_INS_4pairIKS6_S8_EEEEE3endB8ue170006Ev, symObjAddr: 0x5BC0, symBinAddr: 0x10000B214, symSize: 0x38 }
  - { offsetInCU: 0x18AE7, offset: 0x28BF3, size: 0x8, addend: 0x0, symName: __ZNKSt3__16vectorINS_12basic_stringIcNS_11char_traitsIcEENS_9allocatorIcEEEENS4_IS6_EEE4sizeB8ue170006Ev, symObjAddr: 0x5CBC, symBinAddr: 0x10000B310, symSize: 0x28 }
  - { offsetInCU: 0x18B0C, offset: 0x28C18, size: 0x8, addend: 0x0, symName: __ZN19unit_test_framework11SetCompleteD1Ev, symObjAddr: 0x5CE4, symBinAddr: 0x10000B338, symSize: 0x2C }
  - { offsetInCU: 0x18B34, offset: 0x28C40, size: 0x8, addend: 0x0, symName: __ZN19unit_test_framework11SetCompleteC2ERb, symObjAddr: 0x5D10, symBinAddr: 0x10000B364, symSize: 0x2C }
  - { offsetInCU: 0x18B6B, offset: 0x28C77, size: 0x8, addend: 0x0, symName: __ZNSt3__16vectorINS_12basic_stringIcNS_11char_traitsIcEENS_9allocatorIcEEEENS4_IS6_EEEC2B8ue170006Ev, symObjAddr: 0x5D3C, symBinAddr: 0x10000B390, symSize: 0x4C }
  - { offsetInCU: 0x18B98, offset: 0x28CA4, size: 0x8, addend: 0x0, symName: __ZNSt3__117__compressed_pairIPNS_12basic_stringIcNS_11char_traitsIcEENS_9allocatorIcEEEENS4_IS6_EEEC1B8ue170006IDnNS_18__default_init_tagEEEOT_OT0_, symObjAddr: 0x5D88, symBinAddr: 0x10000B3DC, symSize: 0x3C }
  - { offsetInCU: 0x18BEE, offset: 0x28CFA, size: 0x8, addend: 0x0, symName: __ZNSt3__117__compressed_pairIPNS_12basic_stringIcNS_11char_traitsIcEENS_9allocatorIcEEEENS4_IS6_EEEC2B8ue170006IDnNS_18__default_init_tagEEEOT_OT0_, symObjAddr: 0x5DC4, symBinAddr: 0x10000B418, symSize: 0x40 }
  - { offsetInCU: 0x18C44, offset: 0x28D50, size: 0x8, addend: 0x0, symName: __ZNSt3__122__compressed_pair_elemIPNS_12basic_stringIcNS_11char_traitsIcEENS_9allocatorIcEEEELi0ELb0EEC2B8ue170006IDnvEEOT_, symObjAddr: 0x5E04, symBinAddr: 0x10000B458, symSize: 0x1C }
  - { offsetInCU: 0x18C85, offset: 0x28D91, size: 0x8, addend: 0x0, symName: __ZNSt3__122__compressed_pair_elemINS_9allocatorINS_12basic_stringIcNS_11char_traitsIcEENS1_IcEEEEEELi1ELb1EEC2B8ue170006ENS_18__default_init_tagE, symObjAddr: 0x5E20, symBinAddr: 0x10000B474, symSize: 0x2C }
  - { offsetInCU: 0x18CB8, offset: 0x28DC4, size: 0x8, addend: 0x0, symName: __ZNSt3__19allocatorINS_12basic_stringIcNS_11char_traitsIcEENS0_IcEEEEEC2B8ue170006Ev, symObjAddr: 0x5E4C, symBinAddr: 0x10000B4A0, symSize: 0x2C }
  - { offsetInCU: 0x18CE0, offset: 0x28DEC, size: 0x8, addend: 0x0, symName: __ZNSt3__116__non_trivial_ifILb1ENS_9allocatorINS_12basic_stringIcNS_11char_traitsIcEENS1_IcEEEEEEEC2B8ue170006Ev, symObjAddr: 0x5E78, symBinAddr: 0x10000B4CC, symSize: 0x14 }
  - { offsetInCU: 0x18D09, offset: 0x28E15, size: 0x8, addend: 0x0, symName: __ZN19unit_test_framework9TestSuite16print_test_namesERNSt3__113basic_ostreamIcNS1_11char_traitsIcEEEE, symObjAddr: 0x5F38, symBinAddr: 0x10000B58C, symSize: 0x8C }
  - { offsetInCU: 0x18D93, offset: 0x28E9F, size: 0x8, addend: 0x0, symName: __ZN19unit_test_framework9ExitSuiteC1Ei, symObjAddr: 0x5FEC, symBinAddr: 0x10000B640, symSize: 0x34 }
  - { offsetInCU: 0x18DC9, offset: 0x28ED5, size: 0x8, addend: 0x0, symName: __ZN19unit_test_framework9ExitSuiteD1Ev, symObjAddr: 0x6020, symBinAddr: 0x10000B674, symSize: 0x2C }
  - { offsetInCU: 0x18DF3, offset: 0x28EFF, size: 0x8, addend: 0x0, symName: __ZN19unit_test_framework9TestSuite17enable_quiet_modeEv, symObjAddr: 0x604C, symBinAddr: 0x10000B6A0, symSize: 0x1C }
  - { offsetInCU: 0x18E18, offset: 0x28F24, size: 0x8, addend: 0x0, symName: __ZNSt3__16vectorINS_12basic_stringIcNS_11char_traitsIcEENS_9allocatorIcEEEENS4_IS6_EEE9push_backB8ue170006EOS6_, symObjAddr: 0x6068, symBinAddr: 0x10000B6BC, symSize: 0x6C }
  - { offsetInCU: 0x18E4E, offset: 0x28F5A, size: 0x8, addend: 0x0, symName: __ZNKSt3__16vectorINS_12basic_stringIcNS_11char_traitsIcEENS_9allocatorIcEEEENS4_IS6_EEE5emptyB8ue170006Ev, symObjAddr: 0x60D4, symBinAddr: 0x10000B728, symSize: 0x28 }
  - { offsetInCU: 0x18E73, offset: 0x28F7F, size: 0x8, addend: 0x0, symName: __ZNKSt3__114__map_iteratorINS_15__tree_iteratorINS_12__value_typeINS_12basic_stringIcNS_11char_traitsIcEENS_9allocatorIcEEEEN19unit_test_framework8TestCaseEEEPNS_11__tree_nodeISB_PvEElEEEdeB8ue170006Ev, symObjAddr: 0x6288, symBinAddr: 0x10000B8DC, symSize: 0x28 }
  - { offsetInCU: 0x18E97, offset: 0x28FA3, size: 0x8, addend: 0x0, symName: __ZNSt3__114__map_iteratorINS_15__tree_iteratorINS_12__value_typeINS_12basic_stringIcNS_11char_traitsIcEENS_9allocatorIcEEEEN19unit_test_framework8TestCaseEEEPNS_11__tree_nodeISB_PvEElEEEppB8ue170006Ev, symObjAddr: 0x6330, symBinAddr: 0x10000B984, symSize: 0x2C }
  - { offsetInCU: 0x18EBB, offset: 0x28FC7, size: 0x8, addend: 0x0, symName: __ZNKSt3__115__tree_iteratorINS_12__value_typeINS_12basic_stringIcNS_11char_traitsIcEENS_9allocatorIcEEEEN19unit_test_framework8TestCaseEEEPNS_11__tree_nodeISA_PvEElEptB8ue170006Ev, symObjAddr: 0x63C0, symBinAddr: 0x10000BA14, symSize: 0x2C }
  - { offsetInCU: 0x18EDF, offset: 0x28FEB, size: 0x8, addend: 0x0, symName: __ZNSt3__114pointer_traitsIPNS_12__value_typeINS_12basic_stringIcNS_11char_traitsIcEENS_9allocatorIcEEEEN19unit_test_framework8TestCaseEEEE10pointer_toB8ue170006ERSA_, symObjAddr: 0x63EC, symBinAddr: 0x10000BA40, symSize: 0x14 }
  - { offsetInCU: 0x18F02, offset: 0x2900E, size: 0x8, addend: 0x0, symName: __ZNKSt3__115__tree_iteratorINS_12__value_typeINS_12basic_stringIcNS_11char_traitsIcEENS_9allocatorIcEEEEN19unit_test_framework8TestCaseEEEPNS_11__tree_nodeISA_PvEElE8__get_npB8ue170006Ev, symObjAddr: 0x6400, symBinAddr: 0x10000BA54, symSize: 0x18 }
  - { offsetInCU: 0x18F27, offset: 0x29033, size: 0x8, addend: 0x0, symName: __ZNSt3__115__tree_iteratorINS_12__value_typeINS_12basic_stringIcNS_11char_traitsIcEENS_9allocatorIcEEEEN19unit_test_framework8TestCaseEEEPNS_11__tree_nodeISA_PvEElEppB8ue170006Ev, symObjAddr: 0x6418, symBinAddr: 0x10000BA6C, symSize: 0x38 }
  - { offsetInCU: 0x18F4B, offset: 0x29057, size: 0x8, addend: 0x0, symName: __ZN19unit_test_framework9ExitSuiteC2Ei, symObjAddr: 0x6510, symBinAddr: 0x10000BB64, symSize: 0x50 }
  - { offsetInCU: 0x18F81, offset: 0x2908D, size: 0x8, addend: 0x0, symName: __ZNSt9exceptionC2B8ue170006Ev, symObjAddr: 0x6560, symBinAddr: 0x10000BBB4, symSize: 0x24 }
  - { offsetInCU: 0x18FAA, offset: 0x290B6, size: 0x8, addend: 0x0, symName: __ZN19unit_test_framework9ExitSuiteD0Ev, symObjAddr: 0x6584, symBinAddr: 0x10000BBD8, symSize: 0x30 }
  - { offsetInCU: 0x18FD4, offset: 0x290E0, size: 0x8, addend: 0x0, symName: __ZN19unit_test_framework9ExitSuiteD2Ev, symObjAddr: 0x65B4, symBinAddr: 0x10000BC08, symSize: 0x2C }
  - { offsetInCU: 0x18FFE, offset: 0x2910A, size: 0x8, addend: 0x0, symName: __ZNSt3__16vectorINS_12basic_stringIcNS_11char_traitsIcEENS_9allocatorIcEEEENS4_IS6_EEE9__end_capB8ue170006Ev, symObjAddr: 0x65E0, symBinAddr: 0x10000BC34, symSize: 0x28 }
  - { offsetInCU: 0x19027, offset: 0x29133, size: 0x8, addend: 0x0, symName: __ZNSt3__16vectorINS_12basic_stringIcNS_11char_traitsIcEENS_9allocatorIcEEEENS4_IS6_EEE22__construct_one_at_endB8ue170006IJS6_EEEvDpOT_, symObjAddr: 0x6608, symBinAddr: 0x10000BC5C, symSize: 0x90 }
  - { offsetInCU: 0x19076, offset: 0x29182, size: 0x8, addend: 0x0, symName: __ZNSt3__16vectorINS_12basic_stringIcNS_11char_traitsIcEENS_9allocatorIcEEEENS4_IS6_EEE21__push_back_slow_pathIS6_EEvOT_, symObjAddr: 0x6698, symBinAddr: 0x10000BCEC, symSize: 0xD8 }
  - { offsetInCU: 0x190D3, offset: 0x291DF, size: 0x8, addend: 0x0, symName: __ZNSt3__117__compressed_pairIPNS_12basic_stringIcNS_11char_traitsIcEENS_9allocatorIcEEEENS4_IS6_EEE5firstB8ue170006Ev, symObjAddr: 0x6770, symBinAddr: 0x10000BDC4, symSize: 0x24 }
  - { offsetInCU: 0x190F7, offset: 0x29203, size: 0x8, addend: 0x0, symName: __ZNSt3__122__compressed_pair_elemIPNS_12basic_stringIcNS_11char_traitsIcEENS_9allocatorIcEEEELi0ELb0EE5__getB8ue170006Ev, symObjAddr: 0x6794, symBinAddr: 0x10000BDE8, symSize: 0x14 }
  - { offsetInCU: 0x19135, offset: 0x29241, size: 0x8, addend: 0x0, symName: __ZNSt3__16vectorINS_12basic_stringIcNS_11char_traitsIcEENS_9allocatorIcEEEENS4_IS6_EEE21_ConstructTransactionC1B8ue170006ERS8_m, symObjAddr: 0x67A8, symBinAddr: 0x10000BDFC, symSize: 0x3C }
  - { offsetInCU: 0x1917B, offset: 0x29287, size: 0x8, addend: 0x0, symName: __ZNSt3__116allocator_traitsINS_9allocatorINS_12basic_stringIcNS_11char_traitsIcEENS1_IcEEEEEEE9constructB8ue170006IS6_JS6_EvEEvRS7_PT_DpOT0_, symObjAddr: 0x67E4, symBinAddr: 0x10000BE38, symSize: 0x34 }
  - { offsetInCU: 0x191D4, offset: 0x292E0, size: 0x8, addend: 0x0, symName: __ZNSt3__16vectorINS_12basic_stringIcNS_11char_traitsIcEENS_9allocatorIcEEEENS4_IS6_EEE7__allocB8ue170006Ev, symObjAddr: 0x6818, symBinAddr: 0x10000BE6C, symSize: 0x28 }
  - { offsetInCU: 0x191F8, offset: 0x29304, size: 0x8, addend: 0x0, symName: __ZNSt3__16vectorINS_12basic_stringIcNS_11char_traitsIcEENS_9allocatorIcEEEENS4_IS6_EEE21_ConstructTransactionD1B8ue170006Ev, symObjAddr: 0x6854, symBinAddr: 0x10000BEA8, symSize: 0x2C }
  - { offsetInCU: 0x19220, offset: 0x2932C, size: 0x8, addend: 0x0, symName: __ZNSt3__16vectorINS_12basic_stringIcNS_11char_traitsIcEENS_9allocatorIcEEEENS4_IS6_EEE21_ConstructTransactionC2B8ue170006ERS8_m, symObjAddr: 0x6880, symBinAddr: 0x10000BED4, symSize: 0x4C }
  - { offsetInCU: 0x19267, offset: 0x29373, size: 0x8, addend: 0x0, symName: __ZNSt3__19allocatorINS_12basic_stringIcNS_11char_traitsIcEENS0_IcEEEEE9constructB8ue170006IS5_JS5_EEEvPT_DpOT0_, symObjAddr: 0x68CC, symBinAddr: 0x10000BF20, symSize: 0x30 }
  - { offsetInCU: 0x192BD, offset: 0x293C9, size: 0x8, addend: 0x0, symName: __ZNSt3__117__compressed_pairIPNS_12basic_stringIcNS_11char_traitsIcEENS_9allocatorIcEEEENS4_IS6_EEE6secondB8ue170006Ev, symObjAddr: 0x68FC, symBinAddr: 0x10000BF50, symSize: 0x24 }
  - { offsetInCU: 0x192E1, offset: 0x293ED, size: 0x8, addend: 0x0, symName: __ZNSt3__122__compressed_pair_elemINS_9allocatorINS_12basic_stringIcNS_11char_traitsIcEENS1_IcEEEEEELi1ELb1EE5__getB8ue170006Ev, symObjAddr: 0x6920, symBinAddr: 0x10000BF74, symSize: 0x14 }
  - { offsetInCU: 0x19306, offset: 0x29412, size: 0x8, addend: 0x0, symName: __ZNSt3__16vectorINS_12basic_stringIcNS_11char_traitsIcEENS_9allocatorIcEEEENS4_IS6_EEE21_ConstructTransactionD2B8ue170006Ev, symObjAddr: 0x6934, symBinAddr: 0x10000BF88, symSize: 0x20 }
  - { offsetInCU: 0x1932F, offset: 0x2943B, size: 0x8, addend: 0x0, symName: __ZNKSt3__16vectorINS_12basic_stringIcNS_11char_traitsIcEENS_9allocatorIcEEEENS4_IS6_EEE11__recommendB8ue170006Em, symObjAddr: 0x6954, symBinAddr: 0x10000BFA8, symSize: 0xB4 }
  - { offsetInCU: 0x19383, offset: 0x2948F, size: 0x8, addend: 0x0, symName: __ZNSt3__114__split_bufferINS_12basic_stringIcNS_11char_traitsIcEENS_9allocatorIcEEEERNS4_IS6_EEEC1EmmS8_, symObjAddr: 0x6A08, symBinAddr: 0x10000C05C, symSize: 0x44 }
  - { offsetInCU: 0x193D8, offset: 0x294E4, size: 0x8, addend: 0x0, symName: __ZNSt3__114__split_bufferINS_12basic_stringIcNS_11char_traitsIcEENS_9allocatorIcEEEERNS4_IS6_EEED1Ev, symObjAddr: 0x6B5C, symBinAddr: 0x10000C1B0, symSize: 0x2C }
  - { offsetInCU: 0x19403, offset: 0x2950F, size: 0x8, addend: 0x0, symName: __ZNKSt3__16vectorINS_12basic_stringIcNS_11char_traitsIcEENS_9allocatorIcEEEENS4_IS6_EEE8max_sizeEv, symObjAddr: 0x6B88, symBinAddr: 0x10000C1DC, symSize: 0x60 }
  - { offsetInCU: 0x1942A, offset: 0x29536, size: 0x8, addend: 0x0, symName: __ZNKSt3__16vectorINS_12basic_stringIcNS_11char_traitsIcEENS_9allocatorIcEEEENS4_IS6_EEE20__throw_length_errorB8ue170006Ev, symObjAddr: 0x6BE8, symBinAddr: 0x10000C23C, symSize: 0x1C }
  - { offsetInCU: 0x1944E, offset: 0x2955A, size: 0x8, addend: 0x0, symName: __ZNKSt3__16vectorINS_12basic_stringIcNS_11char_traitsIcEENS_9allocatorIcEEEENS4_IS6_EEE8capacityB8ue170006Ev, symObjAddr: 0x6C04, symBinAddr: 0x10000C258, symSize: 0x40 }
  - { offsetInCU: 0x1947C, offset: 0x29588, size: 0x8, addend: 0x0, symName: __ZNSt3__116allocator_traitsINS_9allocatorINS_12basic_stringIcNS_11char_traitsIcEENS1_IcEEEEEEE8max_sizeB8ue170006IS7_vEEmRKS7_, symObjAddr: 0x6C70, symBinAddr: 0x10000C2C4, symSize: 0x24 }
  - { offsetInCU: 0x194AA, offset: 0x295B6, size: 0x8, addend: 0x0, symName: __ZNKSt3__16vectorINS_12basic_stringIcNS_11char_traitsIcEENS_9allocatorIcEEEENS4_IS6_EEE7__allocB8ue170006Ev, symObjAddr: 0x6C94, symBinAddr: 0x10000C2E8, symSize: 0x28 }
  - { offsetInCU: 0x194CE, offset: 0x295DA, size: 0x8, addend: 0x0, symName: __ZNKSt3__19allocatorINS_12basic_stringIcNS_11char_traitsIcEENS0_IcEEEEE8max_sizeB8ue170006Ev, symObjAddr: 0x6CD0, symBinAddr: 0x10000C310, symSize: 0x18 }
  - { offsetInCU: 0x194F3, offset: 0x295FF, size: 0x8, addend: 0x0, symName: __ZNKSt3__117__compressed_pairIPNS_12basic_stringIcNS_11char_traitsIcEENS_9allocatorIcEEEENS4_IS6_EEE6secondB8ue170006Ev, symObjAddr: 0x6CE8, symBinAddr: 0x10000C328, symSize: 0x24 }
  - { offsetInCU: 0x19517, offset: 0x29623, size: 0x8, addend: 0x0, symName: __ZNKSt3__122__compressed_pair_elemINS_9allocatorINS_12basic_stringIcNS_11char_traitsIcEENS1_IcEEEEEELi1ELb1EE5__getB8ue170006Ev, symObjAddr: 0x6D0C, symBinAddr: 0x10000C34C, symSize: 0x14 }
  - { offsetInCU: 0x1953C, offset: 0x29648, size: 0x8, addend: 0x0, symName: __ZNSt12length_errorC1B8ue170006EPKc, symObjAddr: 0x6D8C, symBinAddr: 0x10000C3C4, symSize: 0x34 }
  - { offsetInCU: 0x19572, offset: 0x2967E, size: 0x8, addend: 0x0, symName: __ZNSt12length_errorC2B8ue170006EPKc, symObjAddr: 0x6DC0, symBinAddr: 0x10000C3F8, symSize: 0x4C }
  - { offsetInCU: 0x195A8, offset: 0x296B4, size: 0x8, addend: 0x0, symName: __ZNKSt3__16vectorINS_12basic_stringIcNS_11char_traitsIcEENS_9allocatorIcEEEENS4_IS6_EEE9__end_capB8ue170006Ev, symObjAddr: 0x6E0C, symBinAddr: 0x10000C444, symSize: 0x28 }
  - { offsetInCU: 0x195CC, offset: 0x296D8, size: 0x8, addend: 0x0, symName: __ZNKSt3__117__compressed_pairIPNS_12basic_stringIcNS_11char_traitsIcEENS_9allocatorIcEEEENS4_IS6_EEE5firstB8ue170006Ev, symObjAddr: 0x6E34, symBinAddr: 0x10000C46C, symSize: 0x24 }
  - { offsetInCU: 0x195F0, offset: 0x296FC, size: 0x8, addend: 0x0, symName: __ZNKSt3__122__compressed_pair_elemIPNS_12basic_stringIcNS_11char_traitsIcEENS_9allocatorIcEEEELi0ELb0EE5__getB8ue170006Ev, symObjAddr: 0x6E58, symBinAddr: 0x10000C490, symSize: 0x14 }
  - { offsetInCU: 0x19615, offset: 0x29721, size: 0x8, addend: 0x0, symName: __ZNSt3__114__split_bufferINS_12basic_stringIcNS_11char_traitsIcEENS_9allocatorIcEEEERNS4_IS6_EEEC2EmmS8_, symObjAddr: 0x6EC0, symBinAddr: 0x10000C4F8, symSize: 0xE0 }
  - { offsetInCU: 0x19687, offset: 0x29793, size: 0x8, addend: 0x0, symName: __ZNSt3__117__compressed_pairIPNS_12basic_stringIcNS_11char_traitsIcEENS_9allocatorIcEEEERNS4_IS6_EEEC1B8ue170006IDnS9_EEOT_OT0_, symObjAddr: 0x6FA0, symBinAddr: 0x10000C5D8, symSize: 0x3C }
  - { offsetInCU: 0x196DD, offset: 0x297E9, size: 0x8, addend: 0x0, symName: __ZNSt3__114__split_bufferINS_12basic_stringIcNS_11char_traitsIcEENS_9allocatorIcEEEERNS4_IS6_EEE7__allocB8ue170006Ev, symObjAddr: 0x701C, symBinAddr: 0x10000C654, symSize: 0x28 }
  - { offsetInCU: 0x19701, offset: 0x2980D, size: 0x8, addend: 0x0, symName: __ZNSt3__114__split_bufferINS_12basic_stringIcNS_11char_traitsIcEENS_9allocatorIcEEEERNS4_IS6_EEE9__end_capB8ue170006Ev, symObjAddr: 0x7044, symBinAddr: 0x10000C67C, symSize: 0x28 }
  - { offsetInCU: 0x19725, offset: 0x29831, size: 0x8, addend: 0x0, symName: __ZNSt3__117__compressed_pairIPNS_12basic_stringIcNS_11char_traitsIcEENS_9allocatorIcEEEERNS4_IS6_EEEC2B8ue170006IDnS9_EEOT_OT0_, symObjAddr: 0x706C, symBinAddr: 0x10000C6A4, symSize: 0x48 }
  - { offsetInCU: 0x1977B, offset: 0x29887, size: 0x8, addend: 0x0, symName: __ZNSt3__122__compressed_pair_elemIRNS_9allocatorINS_12basic_stringIcNS_11char_traitsIcEENS1_IcEEEEEELi1ELb0EEC2B8ue170006IS8_vEEOT_, symObjAddr: 0x70B4, symBinAddr: 0x10000C6EC, symSize: 0x20 }
  - { offsetInCU: 0x197BC, offset: 0x298C8, size: 0x8, addend: 0x0, symName: __ZNSt3__19allocatorINS_12basic_stringIcNS_11char_traitsIcEENS0_IcEEEEE8allocateB8ue170006Em, symObjAddr: 0x70D4, symBinAddr: 0x10000C70C, symSize: 0x5C }
  - { offsetInCU: 0x197EE, offset: 0x298FA, size: 0x8, addend: 0x0, symName: __ZNSt3__117__compressed_pairIPNS_12basic_stringIcNS_11char_traitsIcEENS_9allocatorIcEEEERNS4_IS6_EEE6secondB8ue170006Ev, symObjAddr: 0x7130, symBinAddr: 0x10000C768, symSize: 0x28 }
  - { offsetInCU: 0x19812, offset: 0x2991E, size: 0x8, addend: 0x0, symName: __ZNSt3__122__compressed_pair_elemIRNS_9allocatorINS_12basic_stringIcNS_11char_traitsIcEENS1_IcEEEEEELi1ELb0EE5__getB8ue170006Ev, symObjAddr: 0x7158, symBinAddr: 0x10000C790, symSize: 0x18 }
  - { offsetInCU: 0x19837, offset: 0x29943, size: 0x8, addend: 0x0, symName: __ZNSt3__117__compressed_pairIPNS_12basic_stringIcNS_11char_traitsIcEENS_9allocatorIcEEEERNS4_IS6_EEE5firstB8ue170006Ev, symObjAddr: 0x7170, symBinAddr: 0x10000C7A8, symSize: 0x24 }
  - { offsetInCU: 0x1985B, offset: 0x29967, size: 0x8, addend: 0x0, symName: __ZNKSt3__16vectorINS_12basic_stringIcNS_11char_traitsIcEENS_9allocatorIcEEEENS4_IS6_EEE17__annotate_deleteB8ue170006Ev, symObjAddr: 0x7194, symBinAddr: 0x10000C7CC, symSize: 0xD4 }
  - { offsetInCU: 0x1987F, offset: 0x2998B, size: 0x8, addend: 0x0, symName: __ZNSt3__116reverse_iteratorIPNS_12basic_stringIcNS_11char_traitsIcEENS_9allocatorIcEEEEEC1B8ue170006ES7_, symObjAddr: 0x7394, symBinAddr: 0x10000C9CC, symSize: 0x34 }
  - { offsetInCU: 0x198B5, offset: 0x299C1, size: 0x8, addend: 0x0, symName: __ZNKSt3__116reverse_iteratorIPNS_12basic_stringIcNS_11char_traitsIcEENS_9allocatorIcEEEEE4baseB8ue170006Ev, symObjAddr: 0x73C8, symBinAddr: 0x10000CA00, symSize: 0x18 }
  - { offsetInCU: 0x198DA, offset: 0x299E6, size: 0x8, addend: 0x0, symName: __ZNKSt3__16vectorINS_12basic_stringIcNS_11char_traitsIcEENS_9allocatorIcEEEENS4_IS6_EEE14__annotate_newB8ue170006Em, symObjAddr: 0x741C, symBinAddr: 0x10000CA54, symSize: 0xC8 }
  - { offsetInCU: 0x1990D, offset: 0x29A19, size: 0x8, addend: 0x0, symName: __ZNKSt3__16vectorINS_12basic_stringIcNS_11char_traitsIcEENS_9allocatorIcEEEENS4_IS6_EEE31__annotate_contiguous_containerB8ue170006EPKvSA_SA_SA_, symObjAddr: 0x74E4, symBinAddr: 0x10000CB1C, symSize: 0x20 }
  - { offsetInCU: 0x19962, offset: 0x29A6E, size: 0x8, addend: 0x0, symName: __ZNKSt3__16vectorINS_12basic_stringIcNS_11char_traitsIcEENS_9allocatorIcEEEENS4_IS6_EEE4dataB8ue170006Ev, symObjAddr: 0x7504, symBinAddr: 0x10000CB3C, symSize: 0x28 }
  - { offsetInCU: 0x19986, offset: 0x29A92, size: 0x8, addend: 0x0, symName: __ZNSt3__129_AllocatorDestroyRangeReverseINS_9allocatorINS_12basic_stringIcNS_11char_traitsIcEENS1_IcEEEEEENS_16reverse_iteratorIPS6_EEEC1B8ue170006ERS7_RSA_SD_, symObjAddr: 0x7578, symBinAddr: 0x10000CBB0, symSize: 0x44 }
  - { offsetInCU: 0x199DB, offset: 0x29AE7, size: 0x8, addend: 0x0, symName: __ZNKSt3__116reverse_iteratorIPNS_12basic_stringIcNS_11char_traitsIcEENS_9allocatorIcEEEEEdeB8ue170006Ev, symObjAddr: 0x7628, symBinAddr: 0x10000CC60, symSize: 0x28 }
  - { offsetInCU: 0x19A0E, offset: 0x29B1A, size: 0x8, addend: 0x0, symName: __ZNSt3__116reverse_iteratorIPNS_12basic_stringIcNS_11char_traitsIcEENS_9allocatorIcEEEEEppB8ue170006Ev, symObjAddr: 0x7650, symBinAddr: 0x10000CC88, symSize: 0x20 }
  - { offsetInCU: 0x19A33, offset: 0x29B3F, size: 0x8, addend: 0x0, symName: __ZNSt3__128__exception_guard_exceptionsINS_29_AllocatorDestroyRangeReverseINS_9allocatorINS_12basic_stringIcNS_11char_traitsIcEENS2_IcEEEEEENS_16reverse_iteratorIPS7_EEEEE10__completeB8ue170006Ev, symObjAddr: 0x7670, symBinAddr: 0x10000CCA8, symSize: 0x1C }
  - { offsetInCU: 0x19A58, offset: 0x29B64, size: 0x8, addend: 0x0, symName: __ZNSt3__128__exception_guard_exceptionsINS_29_AllocatorDestroyRangeReverseINS_9allocatorINS_12basic_stringIcNS_11char_traitsIcEENS2_IcEEEEEENS_16reverse_iteratorIPS7_EEEEED1B8ue170006Ev, symObjAddr: 0x768C, symBinAddr: 0x10000CCC4, symSize: 0x2C }
  - { offsetInCU: 0x19A80, offset: 0x29B8C, size: 0x8, addend: 0x0, symName: __ZNSt3__128__exception_guard_exceptionsINS_29_AllocatorDestroyRangeReverseINS_9allocatorINS_12basic_stringIcNS_11char_traitsIcEENS2_IcEEEEEENS_16reverse_iteratorIPS7_EEEEEC1B8ue170006ESC_, symObjAddr: 0x76B8, symBinAddr: 0x10000CCF0, symSize: 0x34 }
  - { offsetInCU: 0x19AB7, offset: 0x29BC3, size: 0x8, addend: 0x0, symName: __ZNSt3__128__exception_guard_exceptionsINS_29_AllocatorDestroyRangeReverseINS_9allocatorINS_12basic_stringIcNS_11char_traitsIcEENS2_IcEEEEEENS_16reverse_iteratorIPS7_EEEEEC2B8ue170006ESC_, symObjAddr: 0x76EC, symBinAddr: 0x10000CD24, symSize: 0x30 }
  - { offsetInCU: 0x19AEF, offset: 0x29BFB, size: 0x8, addend: 0x0, symName: __ZNSt3__129_AllocatorDestroyRangeReverseINS_9allocatorINS_12basic_stringIcNS_11char_traitsIcEENS1_IcEEEEEENS_16reverse_iteratorIPS6_EEEC2B8ue170006ERS7_RSA_SD_, symObjAddr: 0x771C, symBinAddr: 0x10000CD54, symSize: 0x38 }
  - { offsetInCU: 0x19B4A, offset: 0x29C56, size: 0x8, addend: 0x0, symName: __ZNSt3__119__to_address_helperINS_16reverse_iteratorIPNS_12basic_stringIcNS_11char_traitsIcEENS_9allocatorIcEEEEEEvE6__callB8ue170006ERKS9_, symObjAddr: 0x7754, symBinAddr: 0x10000CD8C, symSize: 0x38 }
  - { offsetInCU: 0x19B6D, offset: 0x29C79, size: 0x8, addend: 0x0, symName: __ZNKSt3__116reverse_iteratorIPNS_12basic_stringIcNS_11char_traitsIcEENS_9allocatorIcEEEEEptB8ue170006Ev, symObjAddr: 0x778C, symBinAddr: 0x10000CDC4, symSize: 0x24 }
  - { offsetInCU: 0x19B91, offset: 0x29C9D, size: 0x8, addend: 0x0, symName: __ZNSt3__128__exception_guard_exceptionsINS_29_AllocatorDestroyRangeReverseINS_9allocatorINS_12basic_stringIcNS_11char_traitsIcEENS2_IcEEEEEENS_16reverse_iteratorIPS7_EEEEED2B8ue170006Ev, symObjAddr: 0x77B0, symBinAddr: 0x10000CDE8, symSize: 0x50 }
  - { offsetInCU: 0x19BB9, offset: 0x29CC5, size: 0x8, addend: 0x0, symName: __ZNKSt3__129_AllocatorDestroyRangeReverseINS_9allocatorINS_12basic_stringIcNS_11char_traitsIcEENS1_IcEEEEEENS_16reverse_iteratorIPS6_EEEclB8ue170006Ev, symObjAddr: 0x7800, symBinAddr: 0x10000CE38, symSize: 0xB4 }
  - { offsetInCU: 0x19BDE, offset: 0x29CEA, size: 0x8, addend: 0x0, symName: __ZNSt3__116reverse_iteratorINS0_IPNS_12basic_stringIcNS_11char_traitsIcEENS_9allocatorIcEEEEEEEC1B8ue170006ES8_, symObjAddr: 0x7924, symBinAddr: 0x10000CF5C, symSize: 0x3C }
  - { offsetInCU: 0x19C14, offset: 0x29D20, size: 0x8, addend: 0x0, symName: __ZNSt3__116allocator_traitsINS_9allocatorINS_12basic_stringIcNS_11char_traitsIcEENS1_IcEEEEEEE7destroyB8ue170006IS6_vEEvRS7_PT_, symObjAddr: 0x79C0, symBinAddr: 0x10000CFF8, symSize: 0x2C }
  - { offsetInCU: 0x19C51, offset: 0x29D5D, size: 0x8, addend: 0x0, symName: __ZNSt3__116reverse_iteratorINS0_IPNS_12basic_stringIcNS_11char_traitsIcEENS_9allocatorIcEEEEEEEppB8ue170006Ev, symObjAddr: 0x7A10, symBinAddr: 0x10000D048, symSize: 0x30 }
  - { offsetInCU: 0x19C75, offset: 0x29D81, size: 0x8, addend: 0x0, symName: __ZNKSt3__116reverse_iteratorINS0_IPNS_12basic_stringIcNS_11char_traitsIcEENS_9allocatorIcEEEEEEE4baseB8ue170006Ev, symObjAddr: 0x7A40, symBinAddr: 0x10000D078, symSize: 0x24 }
  - { offsetInCU: 0x19C9A, offset: 0x29DA6, size: 0x8, addend: 0x0, symName: __ZNSt3__19allocatorINS_12basic_stringIcNS_11char_traitsIcEENS0_IcEEEEE7destroyB8ue170006EPS5_, symObjAddr: 0x7A64, symBinAddr: 0x10000D09C, symSize: 0x28 }
  - { offsetInCU: 0x19CD1, offset: 0x29DDD, size: 0x8, addend: 0x0, symName: __ZNSt3__119__to_address_helperINS_16reverse_iteratorINS1_IPNS_12basic_stringIcNS_11char_traitsIcEENS_9allocatorIcEEEEEEEEvE6__callB8ue170006ERKSA_, symObjAddr: 0x7A8C, symBinAddr: 0x10000D0C4, symSize: 0x38 }
  - { offsetInCU: 0x19CF4, offset: 0x29E00, size: 0x8, addend: 0x0, symName: __ZNKSt3__116reverse_iteratorINS0_IPNS_12basic_stringIcNS_11char_traitsIcEENS_9allocatorIcEEEEEEEptB8ue170006Ev, symObjAddr: 0x7AC4, symBinAddr: 0x10000D0FC, symSize: 0x24 }
  - { offsetInCU: 0x19D18, offset: 0x29E24, size: 0x8, addend: 0x0, symName: __ZNKSt3__116reverse_iteratorINS0_IPNS_12basic_stringIcNS_11char_traitsIcEENS_9allocatorIcEEEEEEEdeB8ue170006Ev, symObjAddr: 0x7AE8, symBinAddr: 0x10000D120, symSize: 0x34 }
  - { offsetInCU: 0x19D4A, offset: 0x29E56, size: 0x8, addend: 0x0, symName: __ZNSt3__116reverse_iteratorIPNS_12basic_stringIcNS_11char_traitsIcEENS_9allocatorIcEEEEEmmB8ue170006Ev, symObjAddr: 0x7B1C, symBinAddr: 0x10000D154, symSize: 0x20 }
  - { offsetInCU: 0x19D6F, offset: 0x29E7B, size: 0x8, addend: 0x0, symName: __ZNSt3__116reverse_iteratorINS0_IPNS_12basic_stringIcNS_11char_traitsIcEENS_9allocatorIcEEEEEEEC2B8ue170006ES8_, symObjAddr: 0x7B3C, symBinAddr: 0x10000D174, symSize: 0x2C }
  - { offsetInCU: 0x19DA6, offset: 0x29EB2, size: 0x8, addend: 0x0, symName: __ZNSt3__116reverse_iteratorIPNS_12basic_stringIcNS_11char_traitsIcEENS_9allocatorIcEEEEEC2B8ue170006ES7_, symObjAddr: 0x7B68, symBinAddr: 0x10000D1A0, symSize: 0x28 }
  - { offsetInCU: 0x19DDD, offset: 0x29EE9, size: 0x8, addend: 0x0, symName: __ZNSt3__114__split_bufferINS_12basic_stringIcNS_11char_traitsIcEENS_9allocatorIcEEEERNS4_IS6_EEED2Ev, symObjAddr: 0x7B90, symBinAddr: 0x10000D1C8, symSize: 0x8C }
  - { offsetInCU: 0x19E08, offset: 0x29F14, size: 0x8, addend: 0x0, symName: __ZNSt3__114__split_bufferINS_12basic_stringIcNS_11char_traitsIcEENS_9allocatorIcEEEERNS4_IS6_EEE5clearB8ue170006Ev, symObjAddr: 0x7C1C, symBinAddr: 0x10000D254, symSize: 0x28 }
  - { offsetInCU: 0x19E2C, offset: 0x29F38, size: 0x8, addend: 0x0, symName: __ZNSt3__116allocator_traitsINS_9allocatorINS_12basic_stringIcNS_11char_traitsIcEENS1_IcEEEEEEE10deallocateB8ue170006ERS7_PS6_m, symObjAddr: 0x7C44, symBinAddr: 0x10000D27C, symSize: 0x34 }
  - { offsetInCU: 0x19E6E, offset: 0x29F7A, size: 0x8, addend: 0x0, symName: __ZNKSt3__114__split_bufferINS_12basic_stringIcNS_11char_traitsIcEENS_9allocatorIcEEEERNS4_IS6_EEE8capacityB8ue170006Ev, symObjAddr: 0x7C78, symBinAddr: 0x10000D2B0, symSize: 0x40 }
  - { offsetInCU: 0x19E92, offset: 0x29F9E, size: 0x8, addend: 0x0, symName: __ZNSt3__114__split_bufferINS_12basic_stringIcNS_11char_traitsIcEENS_9allocatorIcEEEERNS4_IS6_EEE17__destruct_at_endB8ue170006EPS6_, symObjAddr: 0x7CB8, symBinAddr: 0x10000D2F0, symSize: 0x2C }
  - { offsetInCU: 0x19EC4, offset: 0x29FD0, size: 0x8, addend: 0x0, symName: __ZNSt3__114__split_bufferINS_12basic_stringIcNS_11char_traitsIcEENS_9allocatorIcEEEERNS4_IS6_EEE17__destruct_at_endB8ue170006EPS6_NS_17integral_constantIbLb0EEE, symObjAddr: 0x7CE4, symBinAddr: 0x10000D31C, symSize: 0x80 }
  - { offsetInCU: 0x19F04, offset: 0x2A010, size: 0x8, addend: 0x0, symName: __ZNSt3__19allocatorINS_12basic_stringIcNS_11char_traitsIcEENS0_IcEEEEE10deallocateB8ue170006EPS5_m, symObjAddr: 0x7D64, symBinAddr: 0x10000D39C, symSize: 0x44 }
  - { offsetInCU: 0x19F44, offset: 0x2A050, size: 0x8, addend: 0x0, symName: __ZNKSt3__114__split_bufferINS_12basic_stringIcNS_11char_traitsIcEENS_9allocatorIcEEEERNS4_IS6_EEE9__end_capB8ue170006Ev, symObjAddr: 0x7DA8, symBinAddr: 0x10000D3E0, symSize: 0x28 }
  - { offsetInCU: 0x19F68, offset: 0x2A074, size: 0x8, addend: 0x0, symName: __ZNKSt3__117__compressed_pairIPNS_12basic_stringIcNS_11char_traitsIcEENS_9allocatorIcEEEERNS4_IS6_EEE5firstB8ue170006Ev, symObjAddr: 0x7DD0, symBinAddr: 0x10000D408, symSize: 0x24 }
  - { offsetInCU: 0x19FAF, offset: 0x2A0BB, size: 0x8, addend: 0x0, symName: __ZZN19unit_test_framework9TestSuite21get_test_names_to_runEiPPcENKUlRKNSt3__14pairINS3_12basic_stringIcNS3_11char_traitsIcEENS3_9allocatorIcEEEENS_8TestCaseEEEE_clESE_, symObjAddr: 0x7DF4, symBinAddr: 0x10000D42C, symSize: 0x3C }
  - { offsetInCU: 0x19FE6, offset: 0x2A0F2, size: 0x8, addend: 0x0, symName: __ZNSt3__14pairINS_12basic_stringIcNS_11char_traitsIcEENS_9allocatorIcEEEEN19unit_test_framework8TestCaseEEC1B8ue170006IKS6_S8_LPv0EEERKNS0_IT_T0_EE, symObjAddr: 0x7E30, symBinAddr: 0x10000D468, symSize: 0x34 }
  - { offsetInCU: 0x1A035, offset: 0x2A141, size: 0x8, addend: 0x0, symName: __ZNSt3__120back_insert_iteratorINS_6vectorINS_12basic_stringIcNS_11char_traitsIcEENS_9allocatorIcEEEENS5_IS7_EEEEEdeB8ue170006Ev, symObjAddr: 0x7E64, symBinAddr: 0x10000D49C, symSize: 0x14 }
  - { offsetInCU: 0x1A05A, offset: 0x2A166, size: 0x8, addend: 0x0, symName: __ZNSt3__120back_insert_iteratorINS_6vectorINS_12basic_stringIcNS_11char_traitsIcEENS_9allocatorIcEEEENS5_IS7_EEEEEaSB8ue170006EOS7_, symObjAddr: 0x7E78, symBinAddr: 0x10000D4B0, symSize: 0x38 }
  - { offsetInCU: 0x1A08C, offset: 0x2A198, size: 0x8, addend: 0x0, symName: __ZNSt3__14pairINS_12basic_stringIcNS_11char_traitsIcEENS_9allocatorIcEEEEN19unit_test_framework8TestCaseEED1Ev, symObjAddr: 0x7EB0, symBinAddr: 0x10000D4E8, symSize: 0x2C }
  - { offsetInCU: 0x1A0B6, offset: 0x2A1C2, size: 0x8, addend: 0x0, symName: __ZNSt3__120back_insert_iteratorINS_6vectorINS_12basic_stringIcNS_11char_traitsIcEENS_9allocatorIcEEEENS5_IS7_EEEEEppB8ue170006Ev, symObjAddr: 0x7EDC, symBinAddr: 0x10000D514, symSize: 0x14 }
  - { offsetInCU: 0x1A0DB, offset: 0x2A1E7, size: 0x8, addend: 0x0, symName: __ZNSt3__14pairINS_12basic_stringIcNS_11char_traitsIcEENS_9allocatorIcEEEEN19unit_test_framework8TestCaseEEC2B8ue170006IKS6_S8_LPv0EEERKNS0_IT_T0_EE, symObjAddr: 0x7EF0, symBinAddr: 0x10000D528, symSize: 0x70 }
  - { offsetInCU: 0x1A134, offset: 0x2A240, size: 0x8, addend: 0x0, symName: __ZN19unit_test_framework8TestCaseC1ERKS0_, symObjAddr: 0x7F60, symBinAddr: 0x10000D598, symSize: 0x34 }
  - { offsetInCU: 0x1A169, offset: 0x2A275, size: 0x8, addend: 0x0, symName: __ZN19unit_test_framework8TestCaseC2ERKS0_, symObjAddr: 0x7F94, symBinAddr: 0x10000D5CC, symSize: 0xB4 }
  - { offsetInCU: 0x1A19E, offset: 0x2A2AA, size: 0x8, addend: 0x0, symName: __ZNSt3__14pairINS_12basic_stringIcNS_11char_traitsIcEENS_9allocatorIcEEEEN19unit_test_framework8TestCaseEED2Ev, symObjAddr: 0x8048, symBinAddr: 0x10000D680, symSize: 0x38 }
  - { offsetInCU: 0x1A1C8, offset: 0x2A2D4, size: 0x8, addend: 0x0, symName: __ZNSt3__120back_insert_iteratorINS_6vectorINS_12basic_stringIcNS_11char_traitsIcEENS_9allocatorIcEEEENS5_IS7_EEEEEC1B8ue170006ERS9_, symObjAddr: 0x8080, symBinAddr: 0x10000D6B8, symSize: 0x34 }
  - { offsetInCU: 0x1A1FE, offset: 0x2A30A, size: 0x8, addend: 0x0, symName: __ZNSt3__120back_insert_iteratorINS_6vectorINS_12basic_stringIcNS_11char_traitsIcEENS_9allocatorIcEEEENS5_IS7_EEEEEC2B8ue170006ERS9_, symObjAddr: 0x80B4, symBinAddr: 0x10000D6EC, symSize: 0x20 }
  - { offsetInCU: 0x1A235, offset: 0x2A341, size: 0x8, addend: 0x0, symName: __ZNSt3__16vectorINS_12basic_stringIcNS_11char_traitsIcEENS_9allocatorIcEEEENS4_IS6_EEE13__move_assignERS8_NS_17integral_constantIbLb1EEE, symObjAddr: 0x80D4, symBinAddr: 0x10000D70C, symSize: 0x94 }
  - { offsetInCU: 0x1A277, offset: 0x2A383, size: 0x8, addend: 0x0, symName: __ZNSt3__16vectorINS_12basic_stringIcNS_11char_traitsIcEENS_9allocatorIcEEEENS4_IS6_EEE13__vdeallocateEv, symObjAddr: 0x8168, symBinAddr: 0x10000D7A0, symSize: 0x94 }
  - { offsetInCU: 0x1A29E, offset: 0x2A3AA, size: 0x8, addend: 0x0, symName: __ZNSt3__16vectorINS_12basic_stringIcNS_11char_traitsIcEENS_9allocatorIcEEEENS4_IS6_EEE19__move_assign_allocB8ue170006ERS8_, symObjAddr: 0x81FC, symBinAddr: 0x10000D834, symSize: 0x2C }
  - { offsetInCU: 0x1A2D1, offset: 0x2A3DD, size: 0x8, addend: 0x0, symName: __ZNSt3__16vectorINS_12basic_stringIcNS_11char_traitsIcEENS_9allocatorIcEEEENS4_IS6_EEE5clearB8ue170006Ev, symObjAddr: 0x8228, symBinAddr: 0x10000D860, symSize: 0x44 }
  - { offsetInCU: 0x1A304, offset: 0x2A410, size: 0x8, addend: 0x0, symName: __ZNSt3__16vectorINS_12basic_stringIcNS_11char_traitsIcEENS_9allocatorIcEEEENS4_IS6_EEE7__clearB8ue170006Ev, symObjAddr: 0x826C, symBinAddr: 0x10000D8A4, symSize: 0x28 }
  - { offsetInCU: 0x1A328, offset: 0x2A434, size: 0x8, addend: 0x0, symName: __ZNKSt3__16vectorINS_12basic_stringIcNS_11char_traitsIcEENS_9allocatorIcEEEENS4_IS6_EEE17__annotate_shrinkB8ue170006Em, symObjAddr: 0x8294, symBinAddr: 0x10000D8CC, symSize: 0xD0 }
  - { offsetInCU: 0x1A35B, offset: 0x2A467, size: 0x8, addend: 0x0, symName: __ZNSt3__16vectorINS_12basic_stringIcNS_11char_traitsIcEENS_9allocatorIcEEEENS4_IS6_EEE22__base_destruct_at_endB8ue170006EPS6_, symObjAddr: 0x8364, symBinAddr: 0x10000D99C, symSize: 0x8C }
  - { offsetInCU: 0x1A39D, offset: 0x2A4A9, size: 0x8, addend: 0x0, symName: __ZNSt3__16vectorINS_12basic_stringIcNS_11char_traitsIcEENS_9allocatorIcEEEENS4_IS6_EEE19__move_assign_allocB8ue170006ERS8_NS_17integral_constantIbLb1EEE, symObjAddr: 0x83F0, symBinAddr: 0x10000DA28, symSize: 0x38 }
  - { offsetInCU: 0x1A3DC, offset: 0x2A4E8, size: 0x8, addend: 0x0, symName: __ZNSt3__16vectorINS_12basic_stringIcNS_11char_traitsIcEENS_9allocatorIcEEEENS4_IS6_EEED2B8ue170006Ev, symObjAddr: 0x8428, symBinAddr: 0x10000DA60, symSize: 0x44 }
  - { offsetInCU: 0x1A404, offset: 0x2A510, size: 0x8, addend: 0x0, symName: __ZNSt3__16vectorINS_12basic_stringIcNS_11char_traitsIcEENS_9allocatorIcEEEENS4_IS6_EEE16__destroy_vectorC1B8ue170006ERS8_, symObjAddr: 0x846C, symBinAddr: 0x10000DAA4, symSize: 0x34 }
  - { offsetInCU: 0x1A43B, offset: 0x2A547, size: 0x8, addend: 0x0, symName: __ZNSt3__16vectorINS_12basic_stringIcNS_11char_traitsIcEENS_9allocatorIcEEEENS4_IS6_EEE16__destroy_vectorclB8ue170006Ev, symObjAddr: 0x84A0, symBinAddr: 0x10000DAD8, symSize: 0x90 }
  - { offsetInCU: 0x1A45F, offset: 0x2A56B, size: 0x8, addend: 0x0, symName: __ZNSt3__16vectorINS_12basic_stringIcNS_11char_traitsIcEENS_9allocatorIcEEEENS4_IS6_EEE16__destroy_vectorC2B8ue170006ERS8_, symObjAddr: 0x8530, symBinAddr: 0x10000DB68, symSize: 0x20 }
  - { offsetInCU: 0x1A497, offset: 0x2A5A3, size: 0x8, addend: 0x0, symName: __ZNSt3__16vectorINS_12basic_stringIcNS_11char_traitsIcEENS_9allocatorIcEEEENS4_IS6_EEE11__make_iterB8ue170006EPS6_, symObjAddr: 0x8550, symBinAddr: 0x10000DB88, symSize: 0x30 }
  - { offsetInCU: 0x1A4CA, offset: 0x2A5D6, size: 0x8, addend: 0x0, symName: __ZNSt3__111__wrap_iterIPNS_12basic_stringIcNS_11char_traitsIcEENS_9allocatorIcEEEEEC1B8ue170006ES7_, symObjAddr: 0x8580, symBinAddr: 0x10000DBB8, symSize: 0x34 }
  - { offsetInCU: 0x1A500, offset: 0x2A60C, size: 0x8, addend: 0x0, symName: __ZNSt3__111__wrap_iterIPNS_12basic_stringIcNS_11char_traitsIcEENS_9allocatorIcEEEEEC2B8ue170006ES7_, symObjAddr: 0x85B4, symBinAddr: 0x10000DBEC, symSize: 0x20 }
  - { offsetInCU: 0x1A537, offset: 0x2A643, size: 0x8, addend: 0x0, symName: __ZNKSt3__111__wrap_iterIPNS_12basic_stringIcNS_11char_traitsIcEENS_9allocatorIcEEEEE4baseB8ue170006Ev, symObjAddr: 0x861C, symBinAddr: 0x10000DC54, symSize: 0x18 }
  - { offsetInCU: 0x1A55C, offset: 0x2A668, size: 0x8, addend: 0x0, symName: __ZNSt3__16__treeINS_12__value_typeINS_12basic_stringIcNS_11char_traitsIcEENS_9allocatorIcEEEEN19unit_test_framework8TestCaseEEENS_19__map_value_compareIS7_SA_NS_4lessIS7_EELb1EEENS5_ISA_EEE4findIS7_EENS_15__tree_iteratorISA_PNS_11__tree_nodeISA_PvEElEERKT_, symObjAddr: 0x8634, symBinAddr: 0x10000DC6C, symSize: 0xF8 }
  - { offsetInCU: 0x1A5AA, offset: 0x2A6B6, size: 0x8, addend: 0x0, symName: __ZNSt3__16__treeINS_12__value_typeINS_12basic_stringIcNS_11char_traitsIcEENS_9allocatorIcEEEEN19unit_test_framework8TestCaseEEENS_19__map_value_compareIS7_SA_NS_4lessIS7_EELb1EEENS5_ISA_EEE13__lower_boundIS7_EENS_15__tree_iteratorISA_PNS_11__tree_nodeISA_PvEElEERKT_SM_PNS_15__tree_end_nodeIPNS_16__tree_node_baseISK_EEEE, symObjAddr: 0x872C, symBinAddr: 0x10000DD64, symSize: 0xA4 }
  - { offsetInCU: 0x1A607, offset: 0x2A713, size: 0x8, addend: 0x0, symName: __ZNSt3__16__treeINS_12__value_typeINS_12basic_stringIcNS_11char_traitsIcEENS_9allocatorIcEEEEN19unit_test_framework8TestCaseEEENS_19__map_value_compareIS7_SA_NS_4lessIS7_EELb1EEENS5_ISA_EEE3endB8ue170006Ev, symObjAddr: 0x87D0, symBinAddr: 0x10000DE08, symSize: 0x34 }
  - { offsetInCU: 0x1A62B, offset: 0x2A737, size: 0x8, addend: 0x0, symName: __ZNKSt3__115__tree_iteratorINS_12__value_typeINS_12basic_stringIcNS_11char_traitsIcEENS_9allocatorIcEEEEN19unit_test_framework8TestCaseEEEPNS_11__tree_nodeISA_PvEElEdeB8ue170006Ev, symObjAddr: 0x8804, symBinAddr: 0x10000DE3C, symSize: 0x28 }
  - { offsetInCU: 0x1A64F, offset: 0x2A75B, size: 0x8, addend: 0x0, symName: __ZNSt3__115__tree_iteratorINS_12__value_typeINS_12basic_stringIcNS_11char_traitsIcEENS_9allocatorIcEEEEN19unit_test_framework8TestCaseEEEPNS_11__tree_nodeISA_PvEElEC1B8ue170006EPNS_15__tree_end_nodeIPNS_16__tree_node_baseISC_EEEE, symObjAddr: 0x882C, symBinAddr: 0x10000DE64, symSize: 0x34 }
  - { offsetInCU: 0x1A686, offset: 0x2A792, size: 0x8, addend: 0x0, symName: __ZNSt3__115__tree_iteratorINS_12__value_typeINS_12basic_stringIcNS_11char_traitsIcEENS_9allocatorIcEEEEN19unit_test_framework8TestCaseEEEPNS_11__tree_nodeISA_PvEElEC2B8ue170006EPNS_15__tree_end_nodeIPNS_16__tree_node_baseISC_EEEE, symObjAddr: 0x8860, symBinAddr: 0x10000DE98, symSize: 0x20 }
  - { offsetInCU: 0x1A6BE, offset: 0x2A7CA, size: 0x8, addend: 0x0, symName: __ZNSt12out_of_rangeC1B8ue170006EPKc, symObjAddr: 0x88E4, symBinAddr: 0x10000DF1C, symSize: 0x34 }
  - { offsetInCU: 0x1A6F4, offset: 0x2A800, size: 0x8, addend: 0x0, symName: __ZNSt12out_of_rangeC2B8ue170006EPKc, symObjAddr: 0x8918, symBinAddr: 0x10000DF50, symSize: 0x4C }
  - { offsetInCU: 0x1A72A, offset: 0x2A836, size: 0x8, addend: 0x0, symName: __ZN19unit_test_framework10Diagnostic8demangleEPKc, symObjAddr: 0x8964, symBinAddr: 0x10000DF9C, symSize: 0xDC }
  - { offsetInCU: 0x1A7AB, offset: 0x2A8B7, size: 0x8, addend: 0x0, symName: __ZNKSt9type_info4nameB8ue170006Ev, symObjAddr: 0x8A40, symBinAddr: 0x10000E078, symSize: 0x24 }
  - { offsetInCU: 0x1A7F0, offset: 0x2A8FC, size: 0x8, addend: 0x0, symName: __ZNSt3__112basic_stringIcNS_11char_traitsIcEENS_9allocatorIcEEEaSB8ue170006EOS5_, symObjAddr: 0x8A64, symBinAddr: 0x10000E09C, symSize: 0x34 }
  - { offsetInCU: 0x1A823, offset: 0x2A92F, size: 0x8, addend: 0x0, symName: __ZNK19unit_test_framework11TestFailure9to_stringEv, symObjAddr: 0x8A98, symBinAddr: 0x10000E0D0, symSize: 0x98 }
  - { offsetInCU: 0x1A855, offset: 0x2A961, size: 0x8, addend: 0x0, symName: __ZNSt3__112basic_stringIcNS_11char_traitsIcEENS_9allocatorIcEEE13__move_assignB8ue170006ERS5_NS_17integral_constantIbLb1EEE, symObjAddr: 0x8B30, symBinAddr: 0x10000E168, symSize: 0xC8 }
  - { offsetInCU: 0x1A897, offset: 0x2A9A3, size: 0x8, addend: 0x0, symName: __ZNSt3__116allocator_traitsINS_9allocatorIcEEE10deallocateB8ue170006ERS2_Pcm, symObjAddr: 0x8BF8, symBinAddr: 0x10000E230, symSize: 0x34 }
  - { offsetInCU: 0x1A8D9, offset: 0x2A9E5, size: 0x8, addend: 0x0, symName: __ZNSt3__112basic_stringIcNS_11char_traitsIcEENS_9allocatorIcEEE7__allocB8ue170006Ev, symObjAddr: 0x8C2C, symBinAddr: 0x10000E264, symSize: 0x24 }
  - { offsetInCU: 0x1A8FD, offset: 0x2AA09, size: 0x8, addend: 0x0, symName: __ZNKSt3__112basic_stringIcNS_11char_traitsIcEENS_9allocatorIcEEE14__get_long_capB8ue170006Ev, symObjAddr: 0x8C50, symBinAddr: 0x10000E288, symSize: 0x30 }
  - { offsetInCU: 0x1A921, offset: 0x2AA2D, size: 0x8, addend: 0x0, symName: __ZNSt3__112basic_stringIcNS_11char_traitsIcEENS_9allocatorIcEEE19__move_assign_allocB8ue170006ERS5_, symObjAddr: 0x8C80, symBinAddr: 0x10000E2B8, symSize: 0x2C }
  - { offsetInCU: 0x1A954, offset: 0x2AA60, size: 0x8, addend: 0x0, symName: __ZNSt3__19allocatorIcE10deallocateB8ue170006EPcm, symObjAddr: 0x8D48, symBinAddr: 0x10000E2E4, symSize: 0x40 }
  - { offsetInCU: 0x1A994, offset: 0x2AAA0, size: 0x8, addend: 0x0, symName: __ZNSt3__117__compressed_pairINS_12basic_stringIcNS_11char_traitsIcEENS_9allocatorIcEEE5__repES5_E6secondB8ue170006Ev, symObjAddr: 0x8D88, symBinAddr: 0x10000E324, symSize: 0x24 }
  - { offsetInCU: 0x1A9B8, offset: 0x2AAC4, size: 0x8, addend: 0x0, symName: __ZNSt3__122__compressed_pair_elemINS_9allocatorIcEELi1ELb1EE5__getB8ue170006Ev, symObjAddr: 0x8DAC, symBinAddr: 0x10000E348, symSize: 0x14 }
  - { offsetInCU: 0x1A9DD, offset: 0x2AAE9, size: 0x8, addend: 0x0, symName: __ZNSt3__112basic_stringIcNS_11char_traitsIcEENS_9allocatorIcEEE19__move_assign_allocB8ue170006ERS5_NS_17integral_constantIbLb1EEE, symObjAddr: 0x8DC0, symBinAddr: 0x10000E35C, symSize: 0x38 }
  - { offsetInCU: 0x1AA1C, offset: 0x2AB28, size: 0x8, addend: 0x0, symName: __ZNK19unit_test_framework11TestFailure5printERNSt3__113basic_ostreamIcNS1_11char_traitsIcEEEE, symObjAddr: 0x8DF8, symBinAddr: 0x10000E394, symSize: 0x7C }
  - { offsetInCU: 0x1AA4E, offset: 0x2AB5A, size: 0x8, addend: 0x0, symName: __ZNKSt3__112basic_stringIcNS_11char_traitsIcEENS_9allocatorIcEEE5emptyB8ue170006Ev, symObjAddr: 0x8E74, symBinAddr: 0x10000E410, symSize: 0x30 }
  - { offsetInCU: 0x1AA7C, offset: 0x2AB88, size: 0x8, addend: 0x0, symName: __ZZN19unit_test_framework9TestSuite9run_testsEiPPcENKUlNSt3__14pairINS3_12basic_stringIcNS3_11char_traitsIcEENS3_9allocatorIcEEEENS_8TestCaseEEEE_clESC_, symObjAddr: 0x8EA4, symBinAddr: 0x10000E440, symSize: 0x30 }
  - { offsetInCU: 0x1AAB4, offset: 0x2ABC0, size: 0x8, addend: 0x0, symName: __ZNSt3__16__treeINS_12__value_typeINS_12basic_stringIcNS_11char_traitsIcEENS_9allocatorIcEEEEN19unit_test_framework8TestCaseEEENS_19__map_value_compareIS7_SA_NS_4lessIS7_EELb1EEENS5_ISA_EEE5beginB8ue170006Ev, symObjAddr: 0x8ED4, symBinAddr: 0x10000E470, symSize: 0x34 }
  - { offsetInCU: 0x1AAE2, offset: 0x2ABEE, size: 0x8, addend: 0x0, symName: __ZZN19unit_test_framework9TestSuite9run_testsEiPPcENKUlNSt3__14pairINS3_12basic_stringIcNS3_11char_traitsIcEENS3_9allocatorIcEEEENS_8TestCaseEEEE0_clESC_, symObjAddr: 0x8F08, symBinAddr: 0x10000E4A4, symSize: 0x30 }
  - { offsetInCU: 0x1AB1A, offset: 0x2AC26, size: 0x8, addend: 0x0, symName: __ZN19unit_test_framework11SetCompleteD2Ev, symObjAddr: 0x8F38, symBinAddr: 0x10000E4D4, symSize: 0x1C }
  - { offsetInCU: 0x1AB43, offset: 0x2AC4F, size: 0x8, addend: 0x0, symName: __ZN19unit_test_framework18TestSuiteDestroyerD2Ev, symObjAddr: 0x8F54, symBinAddr: 0x10000E4F0, symSize: 0x58 }
  - { offsetInCU: 0x1AB6B, offset: 0x2AC77, size: 0x8, addend: 0x0, symName: __ZN19unit_test_framework9TestSuiteD1Ev, symObjAddr: 0x8FAC, symBinAddr: 0x10000E548, symSize: 0x2C }
  - { offsetInCU: 0x1AB93, offset: 0x2AC9F, size: 0x8, addend: 0x0, symName: __ZN19unit_test_framework9TestSuiteD2Ev, symObjAddr: 0x8FD8, symBinAddr: 0x10000E574, symSize: 0x2C }
  - { offsetInCU: 0x1ABBB, offset: 0x2ACC7, size: 0x8, addend: 0x0, symName: __ZNSt3__112basic_stringIcNS_11char_traitsIcEENS_9allocatorIcEEEC2B8ue170006ILi0EEEPKc, symObjAddr: 0x9004, symBinAddr: 0x10000E5A0, symSize: 0x58 }
...
